(lp0
(I114
I5
tp1
a(I167
I13
tp2
a(I43
I3
tp3
a(I191
I155
tp4
a(I90
I42
tp5
a(I211
I133
tp6
a(I204
I22
tp7
a(I42
I88
tp8
a(I80
I155
tp9
a(I136
I157
tp10
a(I160
I3
tp11
a(I146
I42
tp12
a(I166
I41
tp13
a(I189
I136
tp14
a(I65
I154
tp15
a(I156
I119
tp16
a(I85
I87
tp17
a(I213
I2
tp18
a(I89
I12
tp19
a(I142
I6
tp20
a(I49
I24
tp21
a(I47
I143
tp22
a(I216
I137
tp23
a(I145
I115
tp24
a(I165
I112
tp25
a(I169
I117
tp26
a(I47
I124
tp27
a(I216
I56
tp28
a(I145
I12
tp29
a(I212
I44
tp30
a(I175
I152
tp31
a(I211
I114
tp32
a(I188
I21
tp33
a(I212
I147
tp34
a(I140
I144
tp35
a(I127
I0
tp36
a(I74
I156
tp37
a(I93
I144
tp38
a(I207
I152
tp39
a(I46
I30
tp40
a(I177
I157
tp41
a(I201
I23
tp42
a(I164
I109
tp43
a(I93
I1
tp44
a(I130
I13
tp45
a(I121
I155
tp46
a(I79
I82
tp47
a(I103
I104
tp48
a(I106
I156
tp49
a(I45
I47
tp50
a(I49
I52
tp51
a(I211
I60
tp52
a(I82
I52
tp53
a(I45
I64
tp54
a(I49
I133
tp55
a(I44
I120
tp56
a(I135
I83
tp57
a(I48
I123
tp58
a(I176
I0
tp59
a(I200
I134
tp60
a(I129
I158
tp61
a(I152
I41
tp62
a(I44
I15
tp63
a(I176
I159
tp64
a(I105
I15
tp65
a(I158
I3
tp66
a(I58
I159
tp67
a(I77
I81
tp68
a(I205
I28
tp69
a(I105
I152
tp70
a(I158
I146
tp71
a(I161
I158
tp72
a(I185
I16
tp73
a(I208
I159
tp74
a(I124
I3
tp75
a(I161
I15
tp76
a(I90
I159
tp77
a(I53
I9
tp78
a(I76
I158
tp79
a(I167
I49
tp80
a(I43
I111
tp81
a(I190
I146
tp82
a(I120
I2
tp83
a(I90
I14
tp84
a(I214
I103
tp85
a(I56
I1
tp86
a(I204
I137
tp87
a(I42
I60
tp88
a(I203
I128
tp89
a(I45
I24
tp90
a(I142
I115
tp91
a(I109
I4
tp92
a(I146
I14
tp93
a(I132
I77
tp94
a(I85
I107
tp95
a(I213
I38
tp96
a(I89
I104
tp97
a(I199
I23
tp98
a(I210
I50
tp99
a(I216
I101
tp100
a(I202
I152
tp101
a(I75
I154
tp102
a(I131
I156
tp103
a(I155
I2
tp104
a(I47
I16
tp105
a(I216
I20
tp106
a(I60
I157
tp107
a(I151
I54
tp108
a(I192
I13
tp109
a(I210
I15
tp110
a(I107
I154
tp111
a(I211
I136
tp112
a(I164
I50
tp113
a(I154
I104
tp114
a(I46
I58
tp115
a(I79
I54
tp116
a(I154
I155
tp117
a(I201
I156
tp118
a(I45
I19
tp119
a(I102
I76
tp120
a(I49
I80
tp121
a(I106
I3
tp122
a(I45
I132
tp123
a(I186
I155
tp124
a(I120
I155
tp125
a(I48
I136
tp126
a(I196
I16
tp127
a(I44
I92
tp128
a(I101
I157
tp129
a(I48
I103
tp130
a(I125
I7
tp131
a(I152
I5
tp132
a(I215
I122
tp133
a(I77
I117
tp134
a(I205
I0
tp135
a(I134
I4
tp136
a(I205
I145
tp137
a(I43
I58
tp138
a(I171
I1
tp139
a(I161
I43
tp140
a(I211
I16
tp141
a(I43
I75
tp142
a(I171
I158
tp143
a(I190
I142
tp144
a(I137
I2
tp145
a(I104
I75
tp146
a(I214
I16
tp147
a(I53
I158
tp148
a(I133
I86
tp149
a(I100
I159
tp150
a(I137
I147
tp151
a(I156
I153
tp152
a(I202
I129
tp153
a(I203
I158
tp154
a(I42
I16
tp155
a(I136
I85
tp156
a(I119
I2
tp157
a(I85
I158
tp158
a(I217
I14
tp159
a(I166
I113
tp160
a(I169
I147
tp161
a(I85
I15
tp162
a(I213
I58
tp163
a(I75
I41
tp164
a(I47
I71
tp165
a(I51
I0
tp166
a(I47
I52
tp167
a(I141
I15
tp168
a(I202
I15
tp169
a(I168
I115
tp170
a(I209
I20
tp171
a(I155
I159
tp172
a(I212
I100
tp173
a(I168
I2
tp174
a(I192
I152
tp175
a(I70
I153
tp176
a(I202
I16
tp177
a(I168
I145
tp178
a(I150
I1
tp179
a(I46
I86
tp180
a(I140
I47
tp181
a(I215
I26
tp182
a(I55
I156
tp183
a(I93
I73
tp184
a(I187
I12
tp185
a(I102
I153
tp186
a(I116
I13
tp187
a(I45
I119
tp188
a(I102
I104
tp189
a(I49
I124
tp190
a(I92
I54
tp191
a(I149
I41
tp192
a(I45
I136
tp193
a(I149
I154
tp194
a(I44
I64
tp195
a(I172
I13
tp196
a(I48
I3
tp197
a(I105
I54
tp198
a(I196
I155
tp199
a(I134
I81
tp200
a(I172
I156
tp201
a(I101
I2
tp202
a(I157
I157
tp203
a(I125
I156
tp204
a(I181
I154
tp205
a(I54
I152
tp206
a(I43
I137
tp207
a(I191
I17
tp208
a(I167
I104
tp209
a(I43
I38
tp210
a(I194
I134
tp211
a(I161
I55
tp212
a(I90
I87
tp213
a(I147
I4
tp214
a(I214
I139
tp215
a(I214
I60
tp216
a(I143
I112
tp217
a(I210
I35
tp218
a(I147
I117
tp219
a(I76
I53
tp220
a(I42
I101
tp221
a(I133
I74
tp222
a(I166
I2
tp223
a(I213
I109
tp224
a(I89
I55
tp225
a(I142
I43
tp226
a(I180
I154
tp227
a(I166
I157
tp228
a(I42
I135
tp229
a(I99
I74
tp230
a(I193
I17
tp231
a(I217
I155
tp232
a(I95
I158
tp233
a(I151
I152
tp234
a(I210
I123
tp235
a(I47
I91
tp236
a(I88
I104
tp237
a(I198
I157
tp238
a(I165
I44
tp239
a(I98
I1
tp240
a(I141
I51
tp241
a(I208
I21
tp242
a(I127
I158
tp243
a(I168
I111
tp244
a(I64
I0
tp245
a(I46
I144
tp246
a(I212
I120
tp247
a(I211
I0
tp248
a(I117
I5
tp249
a(I46
I3
tp250
a(I144
I7
tp251
a(I214
I31
tp252
a(I46
I114
tp253
a(I197
I14
tp254
a(I211
I39
tp255
a(I150
I156
tp256
a(I153
I104
tp257
a(I49
I15
tp258
a(I197
I159
tp259
a(I126
I15
tp260
a(I163
I3
tp261
a(I92
I107
tp262
a(I187
I153
tp263
a(I79
I159
tp264
a(I45
I91
tp265
a(I49
I152
tp266
a(I163
I144
tp267
a(I182
I156
tp268
a(I129
I0
tp269
a(I116
I144
tp270
a(I44
I149
tp271
a(I48
I80
tp272
a(I139
I107
tp273
a(I182
I15
tp274
a(I78
I76
tp275
a(I81
I152
tp276
a(I44
I36
tp277
a(I48
I47
tp278
a(I190
I20
tp279
a(I195
I144
tp280
a(I111
I12
tp281
a(I81
I41
tp282
a(I138
I48
tp283
a(I87
I119
tp284
a(I215
I34
tp285
a(I209
I141
tp286
a(I114
I2
tp287
a(I167
I12
tp288
a(I43
I2
tp289
a(I191
I154
tp290
a(I49
I17
tp291
a(I90
I43
tp292
a(I204
I23
tp293
a(I167
I157
tp294
a(I210
I110
tp295
a(I42
I89
tp296
a(I80
I156
tp297
a(I136
I158
tp298
a(I160
I4
tp299
a(I199
I157
tp300
a(I146
I43
tp301
a(I166
I46
tp302
a(I65
I153
tp303
a(I85
I86
tp304
a(I213
I1
tp305
a(I142
I7
tp306
a(I47
I142
tp307
a(I216
I138
tp308
a(I145
I114
tp309
a(I169
I116
tp310
a(I47
I127
tp311
a(I210
I36
tp312
a(I216
I57
tp313
a(I145
I3
tp314
a(I212
I45
tp315
a(I175
I155
tp316
a(I189
I154
tp317
a(I188
I22
tp318
a(I212
I156
tp319
a(I140
I145
tp320
a(I210
I1
tp321
a(I127
I3
tp322
a(I74
I157
tp323
a(I207
I155
tp324
a(I46
I31
tp325
a(I177
I156
tp326
a(I139
I7
tp327
a(I201
I22
tp328
a(I164
I110
tp329
a(I93
I0
tp330
a(I181
I18
tp331
a(I103
I107
tp332
a(I106
I157
tp333
a(I211
I111
tp334
a(I59
I1
tp335
a(I45
I46
tp336
a(I42
I131
tp337
a(I49
I43
tp338
a(I82
I53
tp339
a(I49
I132
tp340
a(I44
I121
tp341
a(I135
I82
tp342
a(I48
I124
tp343
a(I176
I1
tp344
a(I200
I135
tp345
a(I129
I157
tp346
a(I152
I42
tp347
a(I44
I8
tp348
a(I176
I144
tp349
a(I105
I14
tp350
a(I158
I0
tp351
a(I210
I144
tp352
a(I186
I19
tp353
a(I58
I156
tp354
a(I77
I80
tp355
a(I205
I27
tp356
a(I105
I159
tp357
a(I158
I147
tp358
a(I161
I157
tp359
a(I111
I145
tp360
a(I208
I144
tp361
a(I214
I154
tp362
a(I161
I14
tp363
a(I90
I156
tp364
a(I53
I8
tp365
a(I76
I159
tp366
a(I167
I48
tp367
a(I43
I110
tp368
a(I190
I147
tp369
a(I104
I80
tp370
a(I90
I15
tp371
a(I216
I124
tp372
a(I214
I100
tp373
a(I56
I2
tp374
a(I204
I138
tp375
a(I42
I61
tp376
a(I142
I112
tp377
a(I109
I3
tp378
a(I146
I15
tp379
a(I132
I78
tp380
a(I99
I53
tp381
a(I85
I106
tp382
a(I213
I37
tp383
a(I199
I22
tp384
a(I146
I158
tp385
a(I216
I102
tp386
a(I142
I146
tp387
a(I202
I153
tp388
a(I75
I157
tp389
a(I131
I159
tp390
a(I98
I86
tp391
a(I155
I5
tp392
a(I47
I19
tp393
a(I178
I158
tp394
a(I216
I21
tp395
a(I60
I158
tp396
a(I192
I14
tp397
a(I107
I157
tp398
a(I211
I139
tp399
a(I144
I48
tp400
a(I164
I51
tp401
a(I154
I105
tp402
a(I181
I141
tp403
a(I46
I59
tp404
a(I140
I4
tp405
a(I210
I24
tp406
a(I154
I152
tp407
a(I199
I27
tp408
a(I45
I18
tp409
a(I102
I77
tp410
a(I49
I87
tp411
a(I106
I0
tp412
a(I195
I26
tp413
a(I186
I152
tp414
a(I120
I156
tp415
a(I48
I137
tp416
a(I196
I17
tp417
a(I44
I93
tp418
a(I101
I156
tp419
a(I48
I24
tp420
a(I125
I6
tp421
a(I54
I2
tp422
a(I152
I6
tp423
a(I215
I117
tp424
a(I77
I116
tp425
a(I134
I5
tp426
a(I205
I144
tp427
a(I43
I61
tp428
a(I171
I0
tp429
a(I161
I42
tp430
a(I43
I74
tp431
a(I171
I145
tp432
a(I190
I143
tp433
a(I137
I1
tp434
a(I104
I76
tp435
a(I214
I17
tp436
a(I53
I157
tp437
a(I133
I85
tp438
a(I100
I152
tp439
a(I137
I146
tp440
a(I156
I154
tp441
a(I180
I16
tp442
a(I203
I145
tp443
a(I42
I17
tp444
a(I136
I86
tp445
a(I85
I157
tp446
a(I217
I13
tp447
a(I166
I118
tp448
a(I169
I146
tp449
a(I99
I81
tp450
a(I122
I146
tp451
a(I85
I14
tp452
a(I213
I57
tp453
a(I89
I75
tp454
a(I75
I40
tp455
a(I47
I70
tp456
a(I51
I3
tp457
a(I165
I55
tp458
a(I47
I55
tp459
a(I141
I14
tp460
a(I202
I12
tp461
a(I168
I116
tp462
a(I155
I158
tp463
a(I84
I40
tp464
a(I212
I101
tp465
a(I141
I159
tp466
a(I208
I3
tp467
a(I168
I3
tp468
a(I192
I153
tp469
a(I70
I158
tp470
a(I168
I146
tp471
a(I150
I6
tp472
a(I173
I159
tp473
a(I46
I87
tp474
a(I140
I40
tp475
a(I55
I159
tp476
a(I93
I72
tp477
a(I187
I15
tp478
a(I153
I147
tp479
a(I102
I158
tp480
a(I211
I53
tp481
a(I116
I14
tp482
a(I82
I106
tp483
a(I45
I118
tp484
a(I194
I7
tp485
a(I102
I105
tp486
a(I49
I115
tp487
a(I92
I55
tp488
a(I149
I40
tp489
a(I207
I31
tp490
a(I45
I135
tp491
a(I149
I153
tp492
a(I44
I65
tp493
a(I172
I14
tp494
a(I48
I4
tp495
a(I105
I53
tp496
a(I196
I132
tp497
a(I134
I86
tp498
a(I172
I157
tp499
a(I101
I1
tp500
a(I125
I155
tp501
a(I181
I153
tp502
a(I54
I153
tp503
a(I195
I24
tp504
a(I43
I136
tp505
a(I191
I16
tp506
a(I167
I107
tp507
a(I43
I25
tp508
a(I194
I135
tp509
a(I161
I54
tp510
a(I90
I84
tp511
a(I147
I7
tp512
a(I214
I61
tp513
a(I143
I115
tp514
a(I184
I0
tp515
a(I147
I116
tp516
a(I76
I54
tp517
a(I42
I98
tp518
a(I133
I73
tp519
a(I210
I96
tp520
a(I166
I3
tp521
a(I42
I25
tp522
a(I213
I108
tp523
a(I160
I104
tp524
a(I89
I54
tp525
a(I142
I40
tp526
a(I180
I155
tp527
a(I166
I146
tp528
a(I42
I132
tp529
a(I99
I77
tp530
a(I193
I16
tp531
a(I210
I61
tp532
a(I217
I154
tp533
a(I217
I50
tp534
a(I95
I153
tp535
a(I151
I155
tp536
a(I199
I134
tp537
a(I47
I90
tp538
a(I88
I105
tp539
a(I198
I146
tp540
a(I165
I43
tp541
a(I210
I22
tp542
a(I141
I50
tp543
a(I186
I137
tp544
a(I127
I153
tp545
a(I64
I1
tp546
a(I46
I145
tp547
a(I212
I121
tp548
a(I117
I4
tp549
a(I46
I0
tp550
a(I46
I115
tp551
a(I197
I13
tp552
a(I150
I157
tp553
a(I49
I14
tp554
a(I45
I141
tp555
a(I197
I158
tp556
a(I126
I12
tp557
a(I163
I2
tp558
a(I187
I152
tp559
a(I79
I158
tp560
a(I45
I90
tp561
a(I49
I159
tp562
a(I206
I26
tp563
a(I163
I147
tp564
a(I182
I157
tp565
a(I129
I7
tp566
a(I116
I145
tp567
a(I44
I150
tp568
a(I48
I81
tp569
a(I139
I106
tp570
a(I182
I12
tp571
a(I149
I116
tp572
a(I78
I77
tp573
a(I81
I159
tp574
a(I44
I37
tp575
a(I48
I32
tp576
a(I195
I147
tp577
a(I111
I15
tp578
a(I81
I40
tp579
a(I138
I49
tp580
a(I87
I118
tp581
a(I215
I61
tp582
a(I209
I140
tp583
a(I114
I3
tp584
a(I167
I15
tp585
a(I43
I5
tp586
a(I104
I117
tp587
a(I90
I40
tp588
a(I204
I16
tp589
a(I167
I156
tp590
a(I47
I78
tp591
a(I194
I26
tp592
a(I42
I70
tp593
a(I80
I157
tp594
a(I136
I159
tp595
a(I160
I5
tp596
a(I199
I156
tp597
a(I146
I40
tp598
a(I166
I47
tp599
a(I65
I152
tp600
a(I85
I85
tp601
a(I213
I0
tp602
a(I160
I116
tp603
a(I142
I4
tp604
a(I99
I105
tp605
a(I47
I137
tp606
a(I216
I139
tp607
a(I179
I1
tp608
a(I145
I113
tp609
a(I47
I126
tp610
a(I216
I58
tp611
a(I145
I2
tp612
a(I212
I46
tp613
a(I175
I154
tp614
a(I188
I23
tp615
a(I212
I157
tp616
a(I140
I146
tp617
a(I127
I2
tp618
a(I74
I154
tp619
a(I217
I53
tp620
a(I207
I154
tp621
a(I46
I28
tp622
a(I177
I147
tp623
a(I201
I21
tp624
a(I164
I111
tp625
a(I103
I106
tp626
a(I106
I154
tp627
a(I59
I0
tp628
a(I45
I45
tp629
a(I49
I42
tp630
a(I92
I72
tp631
a(I44
I122
tp632
a(I135
I77
tp633
a(I48
I125
tp634
a(I176
I2
tp635
a(I200
I136
tp636
a(I129
I156
tp637
a(I152
I43
tp638
a(I44
I9
tp639
a(I176
I145
tp640
a(I105
I13
tp641
a(I158
I1
tp642
a(I58
I157
tp643
a(I77
I79
tp644
a(I205
I26
tp645
a(I105
I158
tp646
a(I158
I144
tp647
a(I161
I156
tp648
a(I111
I144
tp649
a(I208
I145
tp650
a(I214
I155
tp651
a(I161
I13
tp652
a(I90
I157
tp653
a(I76
I152
tp654
a(I167
I51
tp655
a(I43
I97
tp656
a(I190
I144
tp657
a(I104
I81
tp658
a(I90
I12
tp659
a(I56
I148
tp660
a(I214
I101
tp661
a(I56
I3
tp662
a(I204
I139
tp663
a(I42
I58
tp664
a(I142
I113
tp665
a(I109
I2
tp666
a(I146
I12
tp667
a(I132
I79
tp668
a(I99
I52
tp669
a(I85
I105
tp670
a(I213
I36
tp671
a(I109
I147
tp672
a(I146
I159
tp673
a(I216
I103
tp674
a(I142
I147
tp675
a(I202
I134
tp676
a(I75
I156
tp677
a(I131
I158
tp678
a(I98
I87
tp679
a(I155
I4
tp680
a(I47
I18
tp681
a(I178
I159
tp682
a(I216
I22
tp683
a(I208
I28
tp684
a(I60
I159
tp685
a(I192
I15
tp686
a(I107
I156
tp687
a(I168
I40
tp688
a(I211
I138
tp689
a(I174
I2
tp690
a(I144
I49
tp691
a(I154
I118
tp692
a(I46
I56
tp693
a(I140
I5
tp694
a(I203
I26
tp695
a(I46
I95
tp696
a(I154
I153
tp697
a(I83
I53
tp698
a(I130
I158
tp699
a(I135
I147
tp700
a(I49
I86
tp701
a(I106
I1
tp702
a(I186
I153
tp703
a(I120
I157
tp704
a(I48
I138
tp705
a(I196
I18
tp706
a(I72
I0
tp707
a(I152
I152
tp708
a(I44
I94
tp709
a(I101
I155
tp710
a(I48
I25
tp711
a(I125
I5
tp712
a(I54
I3
tp713
a(I152
I7
tp714
a(I87
I73
tp715
a(I215
I116
tp716
a(I205
I143
tp717
a(I43
I60
tp718
a(I171
I3
tp719
a(I49
I26
tp720
a(I161
I41
tp721
a(I43
I77
tp722
a(I171
I144
tp723
a(I190
I140
tp724
a(I137
I0
tp725
a(I104
I77
tp726
a(I45
I56
tp727
a(I124
I144
tp728
a(I53
I156
tp729
a(I133
I84
tp730
a(I100
I153
tp731
a(I137
I145
tp732
a(I156
I155
tp733
a(I180
I17
tp734
a(I203
I144
tp735
a(I132
I156
tp736
a(I136
I87
tp737
a(I203
I135
tp738
a(I85
I156
tp739
a(I135
I145
tp740
a(I217
I12
tp741
a(I166
I119
tp742
a(I169
I145
tp743
a(I99
I80
tp744
a(I122
I147
tp745
a(I85
I13
tp746
a(I213
I56
tp747
a(I51
I149
tp748
a(I89
I74
tp749
a(I75
I43
tp750
a(I136
I76
tp751
a(I122
I2
tp752
a(I210
I47
tp753
a(I51
I2
tp754
a(I165
I54
tp755
a(I47
I54
tp756
a(I141
I13
tp757
a(I202
I13
tp758
a(I168
I117
tp759
a(I155
I145
tp760
a(I84
I41
tp761
a(I212
I102
tp762
a(I178
I18
tp763
a(I141
I158
tp764
a(I168
I4
tp765
a(I192
I154
tp766
a(I49
I142
tp767
a(I70
I159
tp768
a(I168
I147
tp769
a(I150
I7
tp770
a(I173
I158
tp771
a(I46
I84
tp772
a(I140
I41
tp773
a(I55
I158
tp774
a(I210
I6
tp775
a(I187
I14
tp776
a(I153
I146
tp777
a(I102
I159
tp778
a(I163
I105
tp779
a(I116
I15
tp780
a(I153
I3
tp781
a(I82
I107
tp782
a(I45
I117
tp783
a(I49
I114
tp784
a(I149
I55
tp785
a(I135
I4
tp786
a(I149
I152
tp787
a(I78
I118
tp788
a(I44
I66
tp789
a(I172
I15
tp790
a(I48
I5
tp791
a(I105
I52
tp792
a(I196
I133
tp793
a(I134
I87
tp794
a(I172
I158
tp795
a(I101
I0
tp796
a(I125
I154
tp797
a(I181
I152
tp798
a(I54
I158
tp799
a(I43
I139
tp800
a(I191
I19
tp801
a(I67
I1
tp802
a(I147
I153
tp803
a(I167
I106
tp804
a(I43
I24
tp805
a(I194
I132
tp806
a(I161
I53
tp807
a(I90
I85
tp808
a(I147
I6
tp809
a(I214
I50
tp810
a(I143
I114
tp811
a(I184
I1
tp812
a(I147
I119
tp813
a(I76
I55
tp814
a(I42
I99
tp815
a(I133
I72
tp816
a(I202
I138
tp817
a(I166
I0
tp818
a(I215
I143
tp819
a(I213
I107
tp820
a(I160
I105
tp821
a(I89
I53
tp822
a(I142
I41
tp823
a(I203
I13
tp824
a(I166
I147
tp825
a(I42
I133
tp826
a(I99
I76
tp827
a(I193
I23
tp828
a(I217
I153
tp829
a(I95
I152
tp830
a(I151
I154
tp831
a(I47
I101
tp832
a(I88
I106
tp833
a(I198
I147
tp834
a(I165
I42
tp835
a(I141
I49
tp836
a(I127
I152
tp837
a(I188
I12
tp838
a(I64
I2
tp839
a(I46
I150
tp840
a(I212
I122
tp841
a(I117
I3
tp842
a(I46
I1
tp843
a(I164
I116
tp844
a(I202
I29
tp845
a(I46
I112
tp846
a(I197
I12
tp847
a(I215
I17
tp848
a(I150
I146
tp849
a(I49
I13
tp850
a(I197
I157
tp851
a(I126
I13
tp852
a(I163
I5
tp853
a(I187
I155
tp854
a(I79
I153
tp855
a(I45
I89
tp856
a(I49
I158
tp857
a(I163
I146
tp858
a(I182
I146
tp859
a(I129
I6
tp860
a(I116
I146
tp861
a(I44
I151
tp862
a(I48
I82
tp863
a(I139
I109
tp864
a(I182
I13
tp865
a(I78
I82
tp866
a(I81
I158
tp867
a(I44
I38
tp868
a(I48
I33
tp869
a(I195
I146
tp870
a(I158
I42
tp871
a(I111
I14
tp872
a(I148
I4
tp873
a(I67
I6
tp874
a(I215
I60
tp875
a(I209
I131
tp876
a(I206
I139
tp877
a(I114
I0
tp878
a(I167
I14
tp879
a(I43
I4
tp880
a(I104
I118
tp881
a(I90
I41
tp882
a(I204
I17
tp883
a(I167
I159
tp884
a(I194
I27
tp885
a(I42
I71
tp886
a(I80
I158
tp887
a(I62
I2
tp888
a(I160
I6
tp889
a(I199
I159
tp890
a(I146
I41
tp891
a(I184
I140
tp892
a(I166
I44
tp893
a(I132
I84
tp894
a(I65
I159
tp895
a(I85
I84
tp896
a(I213
I15
tp897
a(I160
I117
tp898
a(I142
I5
tp899
a(I99
I104
tp900
a(I194
I159
tp901
a(I47
I136
tp902
a(I216
I140
tp903
a(I179
I0
tp904
a(I145
I112
tp905
a(I47
I121
tp906
a(I216
I59
tp907
a(I145
I1
tp908
a(I211
I96
tp909
a(I212
I47
tp910
a(I198
I14
tp911
a(I188
I16
tp912
a(I212
I158
tp913
a(I140
I147
tp914
a(I127
I13
tp915
a(I74
I155
tp916
a(I211
I7
tp917
a(I46
I29
tp918
a(I177
I146
tp919
a(I201
I20
tp920
a(I164
I104
tp921
a(I106
I155
tp922
a(I183
I13
tp923
a(I59
I3
tp924
a(I45
I44
tp925
a(I194
I14
tp926
a(I49
I41
tp927
a(I92
I73
tp928
a(I96
I12
tp929
a(I102
I54
tp930
a(I44
I123
tp931
a(I135
I76
tp932
a(I48
I126
tp933
a(I176
I3
tp934
a(I200
I137
tp935
a(I129
I147
tp936
a(I44
I10
tp937
a(I176
I146
tp938
a(I105
I12
tp939
a(I158
I6
tp940
a(I58
I154
tp941
a(I77
I78
tp942
a(I205
I25
tp943
a(I105
I157
tp944
a(I158
I145
tp945
a(I161
I147
tp946
a(I111
I147
tp947
a(I208
I146
tp948
a(I214
I152
tp949
a(I161
I12
tp950
a(I90
I154
tp951
a(I76
I153
tp952
a(I167
I50
tp953
a(I43
I96
tp954
a(I190
I145
tp955
a(I104
I82
tp956
a(I202
I18
tp957
a(I90
I13
tp958
a(I143
I5
tp959
a(I56
I149
tp960
a(I210
I107
tp961
a(I214
I122
tp962
a(I56
I4
tp963
a(I204
I132
tp964
a(I42
I59
tp965
a(I132
I146
tp966
a(I142
I118
tp967
a(I109
I1
tp968
a(I146
I13
tp969
a(I132
I72
tp970
a(I99
I55
tp971
a(I85
I104
tp972
a(I213
I35
tp973
a(I217
I43
tp974
a(I109
I146
tp975
a(I146
I156
tp976
a(I199
I143
tp977
a(I216
I104
tp978
a(I142
I144
tp979
a(I202
I135
tp980
a(I75
I159
tp981
a(I98
I84
tp982
a(I155
I7
tp983
a(I47
I29
tp984
a(I178
I156
tp985
a(I216
I23
tp986
a(I179
I141
tp987
a(I112
I152
tp988
a(I60
I152
tp989
a(I192
I0
tp990
a(I107
I159
tp991
a(I168
I41
tp992
a(I121
I15
tp993
a(I174
I3
tp994
a(I144
I50
tp995
a(I217
I113
tp996
a(I154
I119
tp997
a(I46
I57
tp998
a(I140
I6
tp999
a(I45
I130
tp1000
a(I83
I52
tp1001
a(I177
I15
tp1002
a(I183
I17
tp1003
a(I130
I159
tp1004
a(I45
I16
tp1005
a(I132
I14
tp1006
a(I49
I85
tp1007
a(I106
I14
tp1008
a(I96
I40
tp1009
a(I120
I158
tp1010
a(I48
I139
tp1011
a(I196
I19
tp1012
a(I72
I1
tp1013
a(I152
I153
tp1014
a(I44
I95
tp1015
a(I101
I154
tp1016
a(I48
I26
tp1017
a(I125
I4
tp1018
a(I162
I14
tp1019
a(I54
I0
tp1020
a(I189
I6
tp1021
a(I87
I72
tp1022
a(I210
I141
tp1023
a(I91
I13
tp1024
a(I81
I119
tp1025
a(I205
I142
tp1026
a(I43
I63
tp1027
a(I171
I2
tp1028
a(I157
I43
tp1029
a(I161
I40
tp1030
a(I45
I50
tp1031
a(I43
I76
tp1032
a(I171
I147
tp1033
a(I190
I141
tp1034
a(I137
I7
tp1035
a(I104
I78
tp1036
a(I124
I145
tp1037
a(I53
I155
tp1038
a(I133
I83
tp1039
a(I100
I154
tp1040
a(I137
I144
tp1041
a(I180
I18
tp1042
a(I203
I147
tp1043
a(I132
I157
tp1044
a(I85
I155
tp1045
a(I217
I19
tp1046
a(I166
I116
tp1047
a(I169
I144
tp1048
a(I99
I83
tp1049
a(I122
I144
tp1050
a(I85
I12
tp1051
a(I51
I148
tp1052
a(I89
I73
tp1053
a(I75
I42
tp1054
a(I198
I138
tp1055
a(I122
I3
tp1056
a(I51
I5
tp1057
a(I165
I53
tp1058
a(I47
I49
tp1059
a(I141
I12
tp1060
a(I168
I118
tp1061
a(I155
I144
tp1062
a(I84
I42
tp1063
a(I212
I103
tp1064
a(I178
I19
tp1065
a(I141
I157
tp1066
a(I168
I5
tp1067
a(I192
I155
tp1068
a(I70
I156
tp1069
a(I150
I4
tp1070
a(I173
I157
tp1071
a(I46
I85
tp1072
a(I140
I42
tp1073
a(I197
I23
tp1074
a(I55
I153
tp1075
a(I187
I1
tp1076
a(I153
I145
tp1077
a(I102
I156
tp1078
a(I211
I19
tp1079
a(I163
I104
tp1080
a(I206
I142
tp1081
a(I153
I2
tp1082
a(I82
I104
tp1083
a(I45
I116
tp1084
a(I49
I113
tp1085
a(I96
I52
tp1086
a(I149
I54
tp1087
a(I45
I133
tp1088
a(I78
I119
tp1089
a(I44
I67
tp1090
a(I48
I6
tp1091
a(I196
I134
tp1092
a(I134
I84
tp1093
a(I172
I159
tp1094
a(I101
I15
tp1095
a(I125
I153
tp1096
a(I91
I105
tp1097
a(I54
I159
tp1098
a(I43
I138
tp1099
a(I81
I83
tp1100
a(I191
I18
tp1101
a(I67
I0
tp1102
a(I147
I152
tp1103
a(I43
I27
tp1104
a(I194
I133
tp1105
a(I157
I15
tp1106
a(I161
I52
tp1107
a(I211
I129
tp1108
a(I86
I14
tp1109
a(I214
I51
tp1110
a(I184
I2
tp1111
a(I147
I118
tp1112
a(I42
I96
tp1113
a(I166
I1
tp1114
a(I213
I106
tp1115
a(I160
I106
tp1116
a(I89
I52
tp1117
a(I142
I46
tp1118
a(I203
I12
tp1119
a(I166
I144
tp1120
a(I42
I130
tp1121
a(I99
I79
tp1122
a(I193
I22
tp1123
a(I217
I152
tp1124
a(I95
I155
tp1125
a(I194
I145
tp1126
a(I47
I100
tp1127
a(I88
I107
tp1128
a(I216
I32
tp1129
a(I198
I144
tp1130
a(I165
I41
tp1131
a(I212
I20
tp1132
a(I141
I48
tp1133
a(I127
I155
tp1134
a(I211
I110
tp1135
a(I188
I13
tp1136
a(I64
I3
tp1137
a(I46
I151
tp1138
a(I212
I123
tp1139
a(I117
I2
tp1140
a(I46
I6
tp1141
a(I164
I117
tp1142
a(I211
I21
tp1143
a(I46
I113
tp1144
a(I195
I19
tp1145
a(I150
I147
tp1146
a(I49
I12
tp1147
a(I197
I156
tp1148
a(I137
I87
tp1149
a(I163
I4
tp1150
a(I211
I56
tp1151
a(I187
I154
tp1152
a(I79
I152
tp1153
a(I45
I88
tp1154
a(I194
I0
tp1155
a(I49
I157
tp1156
a(I182
I147
tp1157
a(I129
I5
tp1158
a(I207
I26
tp1159
a(I116
I147
tp1160
a(I44
I144
tp1161
a(I48
I83
tp1162
a(I139
I108
tp1163
a(I182
I2
tp1164
a(I78
I83
tp1165
a(I81
I157
tp1166
a(I44
I39
tp1167
a(I48
I34
tp1168
a(I158
I43
tp1169
a(I162
I54
tp1170
a(I185
I143
tp1171
a(I148
I5
tp1172
a(I215
I63
tp1173
a(I91
I117
tp1174
a(I210
I120
tp1175
a(I209
I130
tp1176
a(I114
I1
tp1177
a(I43
I7
tp1178
a(I104
I119
tp1179
a(I90
I54
tp1180
a(I204
I18
tp1181
a(I167
I158
tp1182
a(I80
I0
tp1183
a(I194
I24
tp1184
a(I86
I42
tp1185
a(I76
I84
tp1186
a(I42
I68
tp1187
a(I80
I159
tp1188
a(I62
I3
tp1189
a(I203
I140
tp1190
a(I45
I28
tp1191
a(I160
I7
tp1192
a(I199
I158
tp1193
a(I83
I153
tp1194
a(I184
I141
tp1195
a(I166
I45
tp1196
a(I132
I85
tp1197
a(I65
I158
tp1198
a(I213
I14
tp1199
a(I160
I118
tp1200
a(I99
I107
tp1201
a(I47
I139
tp1202
a(I210
I54
tp1203
a(I216
I141
tp1204
a(I179
I3
tp1205
a(I145
I119
tp1206
a(I94
I146
tp1207
a(I47
I120
tp1208
a(I216
I60
tp1209
a(I145
I0
tp1210
a(I212
I40
tp1211
a(I210
I19
tp1212
a(I198
I15
tp1213
a(I188
I17
tp1214
a(I212
I159
tp1215
a(I127
I12
tp1216
a(I74
I152
tp1217
a(I46
I34
tp1218
a(I177
I145
tp1219
a(I201
I27
tp1220
a(I164
I105
tp1221
a(I207
I21
tp1222
a(I106
I152
tp1223
a(I183
I12
tp1224
a(I59
I2
tp1225
a(I45
I43
tp1226
a(I49
I40
tp1227
a(I92
I74
tp1228
a(I96
I13
tp1229
a(I102
I55
tp1230
a(I199
I18
tp1231
a(I217
I48
tp1232
a(I206
I31
tp1233
a(I44
I116
tp1234
a(I135
I79
tp1235
a(I48
I127
tp1236
a(I176
I4
tp1237
a(I200
I138
tp1238
a(I129
I146
tp1239
a(I44
I11
tp1240
a(I176
I147
tp1241
a(I158
I7
tp1242
a(I58
I155
tp1243
a(I77
I77
tp1244
a(I205
I24
tp1245
a(I203
I29
tp1246
a(I105
I156
tp1247
a(I161
I146
tp1248
a(I111
I146
tp1249
a(I208
I147
tp1250
a(I214
I153
tp1251
a(I161
I3
tp1252
a(I90
I155
tp1253
a(I76
I154
tp1254
a(I167
I45
tp1255
a(I43
I99
tp1256
a(I216
I106
tp1257
a(I104
I83
tp1258
a(I143
I4
tp1259
a(I56
I150
tp1260
a(I86
I54
tp1261
a(I214
I123
tp1262
a(I56
I5
tp1263
a(I204
I133
tp1264
a(I42
I56
tp1265
a(I142
I119
tp1266
a(I109
I0
tp1267
a(I132
I73
tp1268
a(I99
I54
tp1269
a(I136
I12
tp1270
a(I85
I119
tp1271
a(I213
I34
tp1272
a(I109
I145
tp1273
a(I146
I157
tp1274
a(I75
I1
tp1275
a(I155
I105
tp1276
a(I213
I147
tp1277
a(I216
I105
tp1278
a(I142
I145
tp1279
a(I202
I132
tp1280
a(I75
I158
tp1281
a(I198
I132
tp1282
a(I98
I85
tp1283
a(I155
I6
tp1284
a(I47
I28
tp1285
a(I178
I157
tp1286
a(I216
I24
tp1287
a(I179
I140
tp1288
a(I112
I153
tp1289
a(I60
I153
tp1290
a(I209
I16
tp1291
a(I192
I1
tp1292
a(I107
I158
tp1293
a(I215
I99
tp1294
a(I168
I42
tp1295
a(I121
I14
tp1296
a(I174
I0
tp1297
a(I144
I51
tp1298
a(I202
I20
tp1299
a(I154
I116
tp1300
a(I46
I62
tp1301
a(I140
I7
tp1302
a(I215
I30
tp1303
a(I83
I55
tp1304
a(I177
I14
tp1305
a(I183
I16
tp1306
a(I130
I156
tp1307
a(I45
I15
tp1308
a(I49
I84
tp1309
a(I106
I15
tp1310
a(I96
I41
tp1311
a(I198
I23
tp1312
a(I120
I159
tp1313
a(I48
I140
tp1314
a(I72
I2
tp1315
a(I96
I152
tp1316
a(I152
I154
tp1317
a(I44
I88
tp1318
a(I101
I153
tp1319
a(I48
I27
tp1320
a(I107
I145
tp1321
a(I125
I3
tp1322
a(I162
I15
tp1323
a(I54
I1
tp1324
a(I87
I75
tp1325
a(I215
I118
tp1326
a(I91
I12
tp1327
a(I81
I118
tp1328
a(I205
I141
tp1329
a(I43
I62
tp1330
a(I171
I5
tp1331
a(I157
I42
tp1332
a(I43
I79
tp1333
a(I171
I146
tp1334
a(I100
I52
tp1335
a(I137
I6
tp1336
a(I104
I79
tp1337
a(I124
I146
tp1338
a(I53
I154
tp1339
a(I211
I143
tp1340
a(I133
I82
tp1341
a(I100
I155
tp1342
a(I180
I19
tp1343
a(I203
I146
tp1344
a(I42
I28
tp1345
a(I156
I4
tp1346
a(I85
I154
tp1347
a(I217
I18
tp1348
a(I166
I117
tp1349
a(I99
I82
tp1350
a(I122
I145
tp1351
a(I199
I26
tp1352
a(I51
I151
tp1353
a(I89
I72
tp1354
a(I217
I131
tp1355
a(I155
I117
tp1356
a(I47
I67
tp1357
a(I51
I4
tp1358
a(I165
I52
tp1359
a(I94
I106
tp1360
a(I47
I48
tp1361
a(I208
I17
tp1362
a(I168
I119
tp1363
a(I131
I13
tp1364
a(I210
I113
tp1365
a(I155
I147
tp1366
a(I84
I43
tp1367
a(I212
I96
tp1368
a(I178
I16
tp1369
a(I141
I156
tp1370
a(I70
I2
tp1371
a(I168
I6
tp1372
a(I192
I156
tp1373
a(I70
I157
tp1374
a(I150
I5
tp1375
a(I214
I27
tp1376
a(I173
I156
tp1377
a(I46
I90
tp1378
a(I140
I43
tp1379
a(I197
I22
tp1380
a(I55
I152
tp1381
a(I211
I35
tp1382
a(I187
I0
tp1383
a(I153
I144
tp1384
a(I102
I157
tp1385
a(I163
I107
tp1386
a(I55
I9
tp1387
a(I206
I143
tp1388
a(I153
I1
tp1389
a(I82
I105
tp1390
a(I45
I115
tp1391
a(I49
I112
tp1392
a(I96
I53
tp1393
a(I149
I53
tp1394
a(I135
I6
tp1395
a(I78
I116
tp1396
a(I44
I60
tp1397
a(I48
I7
tp1398
a(I196
I135
tp1399
a(I134
I85
tp1400
a(I172
I152
tp1401
a(I101
I14
tp1402
a(I125
I152
tp1403
a(I91
I104
tp1404
a(I54
I156
tp1405
a(I43
I141
tp1406
a(I81
I82
tp1407
a(I67
I3
tp1408
a(I91
I153
tp1409
a(I147
I155
tp1410
a(I43
I26
tp1411
a(I139
I159
tp1412
a(I157
I14
tp1413
a(I100
I40
tp1414
a(I123
I153
tp1415
a(I86
I15
tp1416
a(I214
I48
tp1417
a(I184
I3
tp1418
a(I42
I97
tp1419
a(I166
I6
tp1420
a(I156
I104
tp1421
a(I213
I105
tp1422
a(I160
I107
tp1423
a(I142
I47
tp1424
a(I203
I15
tp1425
a(I166
I145
tp1426
a(I95
I117
tp1427
a(I132
I1
tp1428
a(I99
I78
tp1429
a(I193
I21
tp1430
a(I217
I159
tp1431
a(I95
I154
tp1432
a(I47
I103
tp1433
a(I210
I40
tp1434
a(I216
I33
tp1435
a(I198
I145
tp1436
a(I71
I157
tp1437
a(I165
I40
tp1438
a(I151
I5
tp1439
a(I212
I21
tp1440
a(I141
I47
tp1441
a(I127
I154
tp1442
a(I164
I144
tp1443
a(I189
I158
tp1444
a(I188
I14
tp1445
a(I64
I4
tp1446
a(I46
I148
tp1447
a(I212
I132
tp1448
a(I210
I5
tp1449
a(I217
I106
tp1450
a(I117
I1
tp1451
a(I46
I7
tp1452
a(I49
I129
tp1453
a(I164
I118
tp1454
a(I46
I118
tp1455
a(I150
I144
tp1456
a(I132
I5
tp1457
a(I49
I3
tp1458
a(I197
I155
tp1459
a(I163
I7
tp1460
a(I187
I157
tp1461
a(I79
I155
tp1462
a(I45
I87
tp1463
a(I49
I156
tp1464
a(I200
I0
tp1465
a(I182
I144
tp1466
a(I129
I4
tp1467
a(I116
I156
tp1468
a(I44
I145
tp1469
a(I48
I84
tp1470
a(I139
I111
tp1471
a(I182
I3
tp1472
a(I189
I15
tp1473
a(I78
I80
tp1474
a(I81
I156
tp1475
a(I44
I32
tp1476
a(I48
I35
tp1477
a(I158
I40
tp1478
a(I162
I55
tp1479
a(I186
I23
tp1480
a(I185
I142
tp1481
a(I148
I6
tp1482
a(I215
I62
tp1483
a(I91
I116
tp1484
a(I209
I129
tp1485
a(I43
I6
tp1486
a(I90
I55
tp1487
a(I204
I19
tp1488
a(I167
I153
tp1489
a(I80
I1
tp1490
a(I194
I25
tp1491
a(I86
I43
tp1492
a(I215
I128
tp1493
a(I76
I85
tp1494
a(I42
I69
tp1495
a(I62
I0
tp1496
a(I86
I154
tp1497
a(I199
I153
tp1498
a(I184
I142
tp1499
a(I132
I86
tp1500
a(I65
I157
tp1501
a(I104
I2
tp1502
a(I213
I13
tp1503
a(I160
I119
tp1504
a(I95
I105
tp1505
a(I99
I106
tp1506
a(I118
I154
tp1507
a(I47
I138
tp1508
a(I216
I142
tp1509
a(I179
I2
tp1510
a(I145
I118
tp1511
a(I94
I147
tp1512
a(I98
I78
tp1513
a(I47
I123
tp1514
a(I88
I72
tp1515
a(I216
I61
tp1516
a(I145
I7
tp1517
a(I151
I41
tp1518
a(I212
I41
tp1519
a(I198
I12
tp1520
a(I74
I54
tp1521
a(I188
I18
tp1522
a(I212
I152
tp1523
a(I127
I15
tp1524
a(I74
I153
tp1525
a(I46
I35
tp1526
a(I177
I144
tp1527
a(I50
I158
tp1528
a(I201
I26
tp1529
a(I164
I106
tp1530
a(I130
I6
tp1531
a(I207
I20
tp1532
a(I106
I153
tp1533
a(I183
I15
tp1534
a(I59
I5
tp1535
a(I82
I158
tp1536
a(I45
I42
tp1537
a(I49
I47
tp1538
a(I72
I152
tp1539
a(I92
I75
tp1540
a(I96
I14
tp1541
a(I102
I52
tp1542
a(I44
I117
tp1543
a(I135
I78
tp1544
a(I48
I112
tp1545
a(I176
I5
tp1546
a(I200
I139
tp1547
a(I129
I145
tp1548
a(I44
I4
tp1549
a(I158
I4
tp1550
a(I215
I109
tp1551
a(I58
I152
tp1552
a(I77
I76
tp1553
a(I205
I23
tp1554
a(I195
I1
tp1555
a(I161
I145
tp1556
a(I111
I157
tp1557
a(I214
I158
tp1558
a(I161
I2
tp1559
a(I90
I152
tp1560
a(I76
I155
tp1561
a(I167
I44
tp1562
a(I43
I98
tp1563
a(I104
I84
tp1564
a(I143
I7
tp1565
a(I56
I151
tp1566
a(I214
I129
tp1567
a(I86
I55
tp1568
a(I214
I120
tp1569
a(I56
I6
tp1570
a(I204
I134
tp1571
a(I42
I57
tp1572
a(I142
I116
tp1573
a(I207
I135
tp1574
a(I132
I74
tp1575
a(I136
I13
tp1576
a(I85
I118
tp1577
a(I213
I33
tp1578
a(I109
I144
tp1579
a(I146
I154
tp1580
a(I75
I0
tp1581
a(I194
I152
tp1582
a(I155
I104
tp1583
a(I213
I146
tp1584
a(I157
I4
tp1585
a(I202
I133
tp1586
a(I98
I82
tp1587
a(I47
I31
tp1588
a(I178
I154
tp1589
a(I216
I25
tp1590
a(I179
I143
tp1591
a(I112
I154
tp1592
a(I211
I103
tp1593
a(I60
I154
tp1594
a(I192
I2
tp1595
a(I141
I119
tp1596
a(I208
I15
tp1597
a(I74
I42
tp1598
a(I168
I43
tp1599
a(I97
I155
tp1600
a(I121
I13
tp1601
a(I174
I1
tp1602
a(I42
I129
tp1603
a(I144
I52
tp1604
a(I154
I117
tp1605
a(I83
I73
tp1606
a(I46
I63
tp1607
a(I140
I0
tp1608
a(I214
I21
tp1609
a(I83
I54
tp1610
a(I177
I13
tp1611
a(I159
I117
tp1612
a(I201
I135
tp1613
a(I183
I19
tp1614
a(I130
I157
tp1615
a(I211
I49
tp1616
a(I211
I121
tp1617
a(I45
I14
tp1618
a(I49
I75
tp1619
a(I209
I19
tp1620
a(I106
I12
tp1621
a(I181
I140
tp1622
a(I96
I42
tp1623
a(I207
I19
tp1624
a(I45
I159
tp1625
a(I48
I141
tp1626
a(I72
I3
tp1627
a(I96
I153
tp1628
a(I152
I155
tp1629
a(I44
I89
tp1630
a(I101
I152
tp1631
a(I48
I28
tp1632
a(I125
I2
tp1633
a(I162
I12
tp1634
a(I54
I6
tp1635
a(I77
I159
tp1636
a(I87
I74
tp1637
a(I215
I113
tp1638
a(I91
I15
tp1639
a(I81
I117
tp1640
a(I205
I140
tp1641
a(I43
I49
tp1642
a(I171
I4
tp1643
a(I157
I41
tp1644
a(I43
I78
tp1645
a(I100
I53
tp1646
a(I137
I5
tp1647
a(I124
I147
tp1648
a(I53
I153
tp1649
a(I133
I81
tp1650
a(I190
I2
tp1651
a(I210
I100
tp1652
a(I132
I159
tp1653
a(I42
I29
tp1654
a(I156
I5
tp1655
a(I85
I153
tp1656
a(I206
I130
tp1657
a(I217
I17
tp1658
a(I120
I12
tp1659
a(I166
I106
tp1660
a(I99
I85
tp1661
a(I122
I158
tp1662
a(I51
I150
tp1663
a(I217
I130
tp1664
a(I217
I46
tp1665
a(I155
I116
tp1666
a(I47
I66
tp1667
a(I51
I7
tp1668
a(I165
I51
tp1669
a(I94
I107
tp1670
a(I98
I118
tp1671
a(I47
I51
tp1672
a(I88
I0
tp1673
a(I186
I141
tp1674
a(I131
I12
tp1675
a(I155
I146
tp1676
a(I84
I52
tp1677
a(I212
I97
tp1678
a(I178
I17
tp1679
a(I141
I155
tp1680
a(I70
I3
tp1681
a(I74
I78
tp1682
a(I189
I144
tp1683
a(I168
I7
tp1684
a(I192
I157
tp1685
a(I217
I116
tp1686
a(I173
I155
tp1687
a(I121
I154
tp1688
a(I197
I21
tp1689
a(I55
I155
tp1690
a(I187
I3
tp1691
a(I102
I146
tp1692
a(I159
I105
tp1693
a(I163
I106
tp1694
a(I55
I8
tp1695
a(I206
I140
tp1696
a(I153
I0
tp1697
a(I45
I114
tp1698
a(I49
I119
tp1699
a(I206
I22
tp1700
a(I96
I54
tp1701
a(I149
I52
tp1702
a(I45
I131
tp1703
a(I78
I117
tp1704
a(I44
I61
tp1705
a(I48
I56
tp1706
a(I189
I1
tp1707
a(I134
I74
tp1708
a(I172
I153
tp1709
a(I101
I13
tp1710
a(I215
I21
tp1711
a(I91
I107
tp1712
a(I54
I157
tp1713
a(I43
I140
tp1714
a(I81
I81
tp1715
a(I157
I156
tp1716
a(I211
I26
tp1717
a(I91
I152
tp1718
a(I147
I154
tp1719
a(I43
I29
tp1720
a(I157
I13
tp1721
a(I100
I41
tp1722
a(I122
I1
tp1723
a(I123
I152
tp1724
a(I86
I12
tp1725
a(I214
I49
tp1726
a(I52
I148
tp1727
a(I184
I4
tp1728
a(I42
I110
tp1729
a(I166
I7
tp1730
a(I156
I105
tp1731
a(I213
I104
tp1732
a(I210
I7
tp1733
a(I142
I44
tp1734
a(I203
I14
tp1735
a(I95
I116
tp1736
a(I132
I2
tp1737
a(I193
I20
tp1738
a(I217
I158
tp1739
a(I169
I3
tp1740
a(I47
I102
tp1741
a(I216
I34
tp1742
a(I71
I156
tp1743
a(I151
I4
tp1744
a(I212
I22
tp1745
a(I141
I46
tp1746
a(I164
I145
tp1747
a(I188
I15
tp1748
a(I151
I117
tp1749
a(I64
I5
tp1750
a(I46
I149
tp1751
a(I84
I72
tp1752
a(I212
I133
tp1753
a(I117
I0
tp1754
a(I46
I4
tp1755
a(I164
I119
tp1756
a(I93
I55
tp1757
a(I83
I1
tp1758
a(I46
I119
tp1759
a(I150
I145
tp1760
a(I49
I2
tp1761
a(I197
I154
tp1762
a(I163
I6
tp1763
a(I187
I156
tp1764
a(I79
I154
tp1765
a(I82
I74
tp1766
a(I45
I86
tp1767
a(I49
I147
tp1768
a(I200
I1
tp1769
a(I182
I145
tp1770
a(I116
I157
tp1771
a(I44
I146
tp1772
a(I48
I85
tp1773
a(I139
I110
tp1774
a(I215
I142
tp1775
a(I200
I144
tp1776
a(I182
I0
tp1777
a(I148
I144
tp1778
a(I78
I81
tp1779
a(I44
I33
tp1780
a(I48
I36
tp1781
a(I158
I41
tp1782
a(I162
I52
tp1783
a(I185
I141
tp1784
a(I148
I7
tp1785
a(I215
I57
tp1786
a(I91
I119
tp1787
a(I209
I128
tp1788
a(I43
I121
tp1789
a(I90
I52
tp1790
a(I211
I132
tp1791
a(I204
I12
tp1792
a(I167
I152
tp1793
a(I80
I2
tp1794
a(I194
I22
tp1795
a(I86
I40
tp1796
a(I76
I86
tp1797
a(I42
I66
tp1798
a(I62
I1
tp1799
a(I86
I155
tp1800
a(I199
I152
tp1801
a(I184
I143
tp1802
a(I132
I87
tp1803
a(I65
I156
tp1804
a(I213
I12
tp1805
a(I95
I104
tp1806
a(I118
I155
tp1807
a(I47
I149
tp1808
a(I216
I143
tp1809
a(I179
I5
tp1810
a(I145
I117
tp1811
a(I94
I144
tp1812
a(I98
I79
tp1813
a(I104
I116
tp1814
a(I47
I122
tp1815
a(I88
I73
tp1816
a(I216
I62
tp1817
a(I208
I24
tp1818
a(I145
I6
tp1819
a(I151
I40
tp1820
a(I212
I42
tp1821
a(I198
I13
tp1822
a(I74
I55
tp1823
a(I168
I48
tp1824
a(I188
I19
tp1825
a(I212
I153
tp1826
a(I127
I14
tp1827
a(I164
I4
tp1828
a(I46
I32
tp1829
a(I50
I159
tp1830
a(I201
I25
tp1831
a(I164
I107
tp1832
a(I130
I7
tp1833
a(I46
I91
tp1834
a(I207
I23
tp1835
a(I183
I14
tp1836
a(I59
I4
tp1837
a(I82
I159
tp1838
a(I45
I41
tp1839
a(I49
I46
tp1840
a(I72
I153
tp1841
a(I96
I15
tp1842
a(I211
I63
tp1843
a(I102
I53
tp1844
a(I78
I2
tp1845
a(I44
I118
tp1846
a(I135
I73
tp1847
a(I48
I113
tp1848
a(I176
I6
tp1849
a(I200
I140
tp1850
a(I129
I144
tp1851
a(I44
I5
tp1852
a(I158
I5
tp1853
a(I215
I108
tp1854
a(I58
I153
tp1855
a(I77
I75
tp1856
a(I205
I22
tp1857
a(I195
I0
tp1858
a(I161
I144
tp1859
a(I111
I156
tp1860
a(I214
I159
tp1861
a(I161
I1
tp1862
a(I90
I153
tp1863
a(I143
I145
tp1864
a(I167
I47
tp1865
a(I43
I101
tp1866
a(I104
I85
tp1867
a(I120
I3
tp1868
a(I214
I14
tp1869
a(I143
I6
tp1870
a(I56
I152
tp1871
a(I86
I52
tp1872
a(I214
I121
tp1873
a(I56
I7
tp1874
a(I204
I135
tp1875
a(I42
I38
tp1876
a(I203
I131
tp1877
a(I142
I117
tp1878
a(I132
I75
tp1879
a(I136
I14
tp1880
a(I85
I117
tp1881
a(I213
I32
tp1882
a(I199
I13
tp1883
a(I146
I155
tp1884
a(I75
I3
tp1885
a(I189
I23
tp1886
a(I155
I107
tp1887
a(I210
I51
tp1888
a(I216
I107
tp1889
a(I112
I12
tp1890
a(I98
I83
tp1891
a(I47
I30
tp1892
a(I178
I155
tp1893
a(I216
I26
tp1894
a(I179
I142
tp1895
a(I122
I4
tp1896
a(I112
I155
tp1897
a(I60
I155
tp1898
a(I192
I3
tp1899
a(I210
I12
tp1900
a(I141
I118
tp1901
a(I74
I43
tp1902
a(I168
I44
tp1903
a(I97
I154
tp1904
a(I121
I12
tp1905
a(I174
I6
tp1906
a(I144
I53
tp1907
a(I83
I72
tp1908
a(I46
I60
tp1909
a(I103
I53
tp1910
a(I140
I1
tp1911
a(I177
I12
tp1912
a(I159
I116
tp1913
a(I163
I113
tp1914
a(I201
I134
tp1915
a(I183
I18
tp1916
a(I130
I154
tp1917
a(I202
I19
tp1918
a(I153
I43
tp1919
a(I45
I13
tp1920
a(I49
I74
tp1921
a(I106
I13
tp1922
a(I159
I5
tp1923
a(I92
I40
tp1924
a(I96
I43
tp1925
a(I45
I158
tp1926
a(I48
I142
tp1927
a(I72
I4
tp1928
a(I96
I154
tp1929
a(I152
I156
tp1930
a(I44
I90
tp1931
a(I48
I29
tp1932
a(I125
I1
tp1933
a(I162
I13
tp1934
a(I54
I7
tp1935
a(I77
I158
tp1936
a(I215
I112
tp1937
a(I91
I14
tp1938
a(I81
I116
tp1939
a(I57
I3
tp1940
a(I205
I139
tp1941
a(I43
I48
tp1942
a(I171
I7
tp1943
a(I157
I40
tp1944
a(I43
I65
tp1945
a(I100
I54
tp1946
a(I137
I4
tp1947
a(I214
I42
tp1948
a(I53
I152
tp1949
a(I133
I80
tp1950
a(I190
I3
tp1951
a(I202
I142
tp1952
a(I132
I152
tp1953
a(I156
I6
tp1954
a(I85
I152
tp1955
a(I217
I16
tp1956
a(I180
I140
tp1957
a(I166
I107
tp1958
a(I99
I84
tp1959
a(I193
I15
tp1960
a(I122
I159
tp1961
a(I51
I153
tp1962
a(I217
I129
tp1963
a(I155
I119
tp1964
a(I122
I14
tp1965
a(I51
I6
tp1966
a(I165
I50
tp1967
a(I94
I104
tp1968
a(I98
I119
tp1969
a(I47
I50
tp1970
a(I88
I1
tp1971
a(I131
I15
tp1972
a(I84
I53
tp1973
a(I212
I98
tp1974
a(I178
I14
tp1975
a(I141
I154
tp1976
a(I70
I0
tp1977
a(I74
I79
tp1978
a(I192
I158
tp1979
a(I107
I13
tp1980
a(I202
I17
tp1981
a(I173
I154
tp1982
a(I121
I153
tp1983
a(I197
I20
tp1984
a(I55
I154
tp1985
a(I187
I2
tp1986
a(I102
I147
tp1987
a(I159
I104
tp1988
a(I163
I109
tp1989
a(I55
I11
tp1990
a(I206
I141
tp1991
a(I153
I7
tp1992
a(I45
I113
tp1993
a(I49
I118
tp1994
a(I92
I12
tp1995
a(I96
I55
tp1996
a(I135
I0
tp1997
a(I44
I62
tp1998
a(I48
I57
tp1999
a(I134
I75
tp2000
a(I172
I154
tp2001
a(I101
I12
tp2002
a(I138
I6
tp2003
a(I67
I2
tp2004
a(I87
I105
tp2005
a(I215
I20
tp2006
a(I91
I106
tp2007
a(I43
I143
tp2008
a(I81
I80
tp2009
a(I209
I155
tp2010
a(I157
I155
tp2011
a(I91
I155
tp2012
a(I147
I157
tp2013
a(I43
I28
tp2014
a(I157
I12
tp2015
a(I214
I136
tp2016
a(I100
I42
tp2017
a(I123
I155
tp2018
a(I86
I13
tp2019
a(I214
I54
tp2020
a(I52
I149
tp2021
a(I184
I5
tp2022
a(I42
I111
tp2023
a(I211
I62
tp2024
a(I52
I4
tp2025
a(I166
I4
tp2026
a(I156
I106
tp2027
a(I213
I119
tp2028
a(I142
I45
tp2029
a(I203
I1
tp2030
a(I95
I119
tp2031
a(I132
I3
tp2032
a(I217
I157
tp2033
a(I169
I2
tp2034
a(I47
I97
tp2035
a(I216
I35
tp2036
a(I71
I159
tp2037
a(I151
I7
tp2038
a(I212
I23
tp2039
a(I141
I45
tp2040
a(I208
I22
tp2041
a(I164
I146
tp2042
a(I151
I116
tp2043
a(I64
I6
tp2044
a(I46
I154
tp2045
a(I84
I73
tp2046
a(I212
I134
tp2047
a(I211
I3
tp2048
a(I117
I15
tp2049
a(I46
I5
tp2050
a(I164
I112
tp2051
a(I93
I54
tp2052
a(I214
I28
tp2053
a(I83
I0
tp2054
a(I46
I116
tp2055
a(I211
I38
tp2056
a(I173
I15
tp2057
a(I49
I1
tp2058
a(I197
I153
tp2059
a(I187
I159
tp2060
a(I82
I75
tp2061
a(I45
I85
tp2062
a(I102
I14
tp2063
a(I49
I146
tp2064
a(I200
I2
tp2065
a(I116
I158
tp2066
a(I44
I147
tp2067
a(I48
I86
tp2068
a(I200
I145
tp2069
a(I182
I1
tp2070
a(I148
I145
tp2071
a(I78
I86
tp2072
a(I44
I34
tp2073
a(I48
I37
tp2074
a(I190
I21
tp2075
a(I162
I53
tp2076
a(I185
I140
tp2077
a(I148
I0
tp2078
a(I87
I13
tp2079
a(I215
I56
tp2080
a(I91
I118
tp2081
a(I77
I55
tp2082
a(I209
I135
tp2083
a(I80
I116
tp2084
a(I43
I120
tp2085
a(I139
I146
tp2086
a(I90
I53
tp2087
a(I143
I45
tp2088
a(I204
I13
tp2089
a(I167
I155
tp2090
a(I80
I3
tp2091
a(I133
I7
tp2092
a(I194
I23
tp2093
a(I210
I111
tp2094
a(I86
I41
tp2095
a(I76
I87
tp2096
a(I204
I156
tp2097
a(I42
I67
tp2098
a(I62
I6
tp2099
a(I86
I152
tp2100
a(I199
I155
tp2101
a(I184
I144
tp2102
a(I132
I80
tp2103
a(I95
I107
tp2104
a(I118
I152
tp2105
a(I47
I148
tp2106
a(I216
I144
tp2107
a(I179
I4
tp2108
a(I145
I116
tp2109
a(I94
I145
tp2110
a(I210
I33
tp2111
a(I98
I76
tp2112
a(I47
I5
tp2113
a(I88
I74
tp2114
a(I216
I63
tp2115
a(I145
I5
tp2116
a(I151
I43
tp2117
a(I212
I43
tp2118
a(I198
I2
tp2119
a(I74
I52
tp2120
a(I189
I153
tp2121
a(I168
I49
tp2122
a(I212
I154
tp2123
a(I217
I109
tp2124
a(I164
I5
tp2125
a(I46
I33
tp2126
a(I210
I121
tp2127
a(I50
I156
tp2128
a(I201
I24
tp2129
a(I130
I4
tp2130
a(I207
I22
tp2131
a(I59
I7
tp2132
a(I82
I156
tp2133
a(I45
I40
tp2134
a(I42
I128
tp2135
a(I49
I45
tp2136
a(I72
I154
tp2137
a(I96
I0
tp2138
a(I102
I42
tp2139
a(I149
I107
tp2140
a(I78
I3
tp2141
a(I44
I119
tp2142
a(I135
I72
tp2143
a(I48
I114
tp2144
a(I176
I7
tp2145
a(I200
I141
tp2146
a(I44
I6
tp2147
a(I210
I145
tp2148
a(I186
I16
tp2149
a(I77
I74
tp2150
a(I205
I21
tp2151
a(I195
I3
tp2152
a(I111
I159
tp2153
a(I216
I152
tp2154
a(I214
I156
tp2155
a(I161
I0
tp2156
a(I143
I144
tp2157
a(I167
I46
tp2158
a(I80
I80
tp2159
a(I43
I100
tp2160
a(I104
I86
tp2161
a(I214
I15
tp2162
a(I143
I1
tp2163
a(I56
I153
tp2164
a(I86
I53
tp2165
a(I214
I126
tp2166
a(I56
I8
tp2167
a(I204
I128
tp2168
a(I42
I39
tp2169
a(I217
I59
tp2170
a(I136
I15
tp2171
a(I85
I116
tp2172
a(I213
I47
tp2173
a(I199
I12
tp2174
a(I146
I152
tp2175
a(I75
I2
tp2176
a(I189
I22
tp2177
a(I155
I106
tp2178
a(I213
I144
tp2179
a(I216
I108
tp2180
a(I195
I140
tp2181
a(I112
I13
tp2182
a(I98
I80
tp2183
a(I47
I25
tp2184
a(I178
I152
tp2185
a(I216
I27
tp2186
a(I179
I145
tp2187
a(I112
I156
tp2188
a(I192
I4
tp2189
a(I107
I147
tp2190
a(I74
I40
tp2191
a(I168
I45
tp2192
a(I97
I153
tp2193
a(I211
I145
tp2194
a(I174
I7
tp2195
a(I144
I54
tp2196
a(I83
I75
tp2197
a(I46
I61
tp2198
a(I103
I52
tp2199
a(I140
I2
tp2200
a(I177
I3
tp2201
a(I159
I119
tp2202
a(I163
I112
tp2203
a(I201
I133
tp2204
a(I130
I155
tp2205
a(I153
I42
tp2206
a(I45
I12
tp2207
a(I49
I73
tp2208
a(I159
I4
tp2209
a(I92
I41
tp2210
a(I45
I157
tp2211
a(I48
I143
tp2212
a(I211
I29
tp2213
a(I72
I5
tp2214
a(I96
I155
tp2215
a(I152
I157
tp2216
a(I44
I91
tp2217
a(I48
I30
tp2218
a(I125
I0
tp2219
a(I54
I4
tp2220
a(I77
I157
tp2221
a(I152
I12
tp2222
a(I215
I115
tp2223
a(I91
I1
tp2224
a(I81
I107
tp2225
a(I87
I53
tp2226
a(I57
I2
tp2227
a(I205
I138
tp2228
a(I43
I51
tp2229
a(I171
I6
tp2230
a(I43
I64
tp2231
a(I100
I55
tp2232
a(I214
I43
tp2233
a(I190
I0
tp2234
a(I156
I144
tp2235
a(I49
I128
tp2236
a(I42
I27
tp2237
a(I156
I7
tp2238
a(I217
I23
tp2239
a(I180
I141
tp2240
a(I75
I81
tp2241
a(I166
I104
tp2242
a(I99
I87
tp2243
a(I193
I14
tp2244
a(I122
I156
tp2245
a(I51
I152
tp2246
a(I217
I128
tp2247
a(I155
I118
tp2248
a(I47
I76
tp2249
a(I51
I9
tp2250
a(I165
I49
tp2251
a(I94
I105
tp2252
a(I98
I116
tp2253
a(I47
I61
tp2254
a(I88
I2
tp2255
a(I211
I106
tp2256
a(I131
I14
tp2257
a(I84
I54
tp2258
a(I212
I99
tp2259
a(I178
I15
tp2260
a(I141
I153
tp2261
a(I70
I1
tp2262
a(I208
I4
tp2263
a(I74
I76
tp2264
a(I192
I159
tp2265
a(I107
I12
tp2266
a(I46
I82
tp2267
a(I173
I153
tp2268
a(I46
I89
tp2269
a(I174
I146
tp2270
a(I197
I19
tp2271
a(I55
I149
tp2272
a(I187
I5
tp2273
a(I102
I144
tp2274
a(I159
I107
tp2275
a(I163
I108
tp2276
a(I55
I10
tp2277
a(I211
I52
tp2278
a(I206
I146
tp2279
a(I153
I6
tp2280
a(I45
I112
tp2281
a(I194
I4
tp2282
a(I49
I117
tp2283
a(I92
I13
tp2284
a(I207
I30
tp2285
a(I45
I129
tp2286
a(I44
I63
tp2287
a(I172
I4
tp2288
a(I48
I58
tp2289
a(I162
I46
tp2290
a(I152
I104
tp2291
a(I134
I72
tp2292
a(I172
I155
tp2293
a(I138
I7
tp2294
a(I87
I104
tp2295
a(I215
I23
tp2296
a(I43
I142
tp2297
a(I81
I87
tp2298
a(I209
I154
tp2299
a(I157
I154
tp2300
a(I91
I154
tp2301
a(I147
I156
tp2302
a(I43
I31
tp2303
a(I147
I13
tp2304
a(I100
I43
tp2305
a(I123
I154
tp2306
a(I86
I2
tp2307
a(I214
I55
tp2308
a(I52
I150
tp2309
a(I123
I7
tp2310
a(I184
I6
tp2311
a(I42
I108
tp2312
a(I210
I97
tp2313
a(I52
I5
tp2314
a(I166
I5
tp2315
a(I156
I107
tp2316
a(I213
I118
tp2317
a(I206
I135
tp2318
a(I142
I50
tp2319
a(I203
I0
tp2320
a(I95
I118
tp2321
a(I42
I142
tp2322
a(I210
I58
tp2323
a(I217
I156
tp2324
a(I217
I49
tp2325
a(I169
I1
tp2326
a(I151
I145
tp2327
a(I193
I155
tp2328
a(I47
I96
tp2329
a(I216
I36
tp2330
a(I71
I158
tp2331
a(I151
I6
tp2332
a(I212
I16
tp2333
a(I210
I23
tp2334
a(I141
I44
tp2335
a(I164
I147
tp2336
a(I151
I119
tp2337
a(I64
I7
tp2338
a(I46
I155
tp2339
a(I84
I74
tp2340
a(I212
I135
tp2341
a(I117
I14
tp2342
a(I46
I10
tp2343
a(I164
I113
tp2344
a(I93
I53
tp2345
a(I83
I3
tp2346
a(I46
I117
tp2347
a(I173
I14
tp2348
a(I49
I0
tp2349
a(I135
I14
tp2350
a(I197
I152
tp2351
a(I187
I158
tp2352
a(I82
I72
tp2353
a(I45
I84
tp2354
a(I102
I15
tp2355
a(I49
I145
tp2356
a(I206
I27
tp2357
a(I200
I3
tp2358
a(I163
I153
tp2359
a(I116
I159
tp2360
a(I44
I140
tp2361
a(I48
I87
tp2362
a(I200
I146
tp2363
a(I182
I6
tp2364
a(I148
I146
tp2365
a(I78
I87
tp2366
a(I44
I35
tp2367
a(I48
I38
tp2368
a(I195
I153
tp2369
a(I162
I50
tp2370
a(I185
I147
tp2371
a(I148
I1
tp2372
a(I87
I12
tp2373
a(I215
I59
tp2374
a(I91
I73
tp2375
a(I77
I54
tp2376
a(I209
I134
tp2377
a(I167
I5
tp2378
a(I80
I117
tp2379
a(I43
I123
tp2380
a(I143
I44
tp2381
a(I147
I41
tp2382
a(I204
I14
tp2383
a(I167
I154
tp2384
a(I80
I4
tp2385
a(I133
I6
tp2386
a(I194
I20
tp2387
a(I76
I80
tp2388
a(I204
I157
tp2389
a(I42
I64
tp2390
a(I62
I7
tp2391
a(I86
I153
tp2392
a(I199
I154
tp2393
a(I184
I145
tp2394
a(I132
I81
tp2395
a(I142
I14
tp2396
a(I95
I106
tp2397
a(I118
I153
tp2398
a(I65
I3
tp2399
a(I47
I151
tp2400
a(I216
I145
tp2401
a(I179
I7
tp2402
a(I145
I107
tp2403
a(I98
I77
tp2404
a(I47
I4
tp2405
a(I211
I120
tp2406
a(I88
I75
tp2407
a(I216
I0
tp2408
a(I145
I4
tp2409
a(I151
I42
tp2410
a(I212
I52
tp2411
a(I198
I3
tp2412
a(I74
I53
tp2413
a(I168
I50
tp2414
a(I212
I155
tp2415
a(I50
I10
tp2416
a(I164
I6
tp2417
a(I188
I156
tp2418
a(I46
I38
tp2419
a(I50
I157
tp2420
a(I130
I5
tp2421
a(I117
I147
tp2422
a(I59
I6
tp2423
a(I82
I157
tp2424
a(I45
I39
tp2425
a(I49
I44
tp2426
a(I72
I155
tp2427
a(I96
I1
tp2428
a(I102
I43
tp2429
a(I149
I106
tp2430
a(I78
I0
tp2431
a(I44
I112
tp2432
a(I135
I75
tp2433
a(I48
I115
tp2434
a(I200
I142
tp2435
a(I44
I7
tp2436
a(I215
I110
tp2437
a(I77
I73
tp2438
a(I205
I20
tp2439
a(I195
I2
tp2440
a(I158
I154
tp2441
a(I91
I85
tp2442
a(I111
I158
tp2443
a(I214
I157
tp2444
a(I161
I7
tp2445
a(I143
I147
tp2446
a(I167
I41
tp2447
a(I80
I81
tp2448
a(I43
I103
tp2449
a(I190
I154
tp2450
a(I104
I87
tp2451
a(I214
I12
tp2452
a(I143
I0
tp2453
a(I56
I154
tp2454
a(I194
I13
tp2455
a(I86
I74
tp2456
a(I214
I127
tp2457
a(I56
I9
tp2458
a(I76
I116
tp2459
a(I204
I129
tp2460
a(I42
I36
tp2461
a(I217
I58
tp2462
a(I146
I6
tp2463
a(I213
I46
tp2464
a(I199
I15
tp2465
a(I146
I153
tp2466
a(I75
I5
tp2467
a(I189
I21
tp2468
a(I213
I159
tp2469
a(I216
I109
tp2470
a(I112
I14
tp2471
a(I98
I81
tp2472
a(I47
I24
tp2473
a(I178
I153
tp2474
a(I216
I28
tp2475
a(I179
I144
tp2476
a(I208
I29
tp2477
a(I112
I157
tp2478
a(I192
I5
tp2479
a(I107
I146
tp2480
a(I144
I152
tp2481
a(I74
I41
tp2482
a(I168
I46
tp2483
a(I97
I152
tp2484
a(I60
I4
tp2485
a(I211
I144
tp2486
a(I174
I4
tp2487
a(I144
I55
tp2488
a(I83
I74
tp2489
a(I46
I66
tp2490
a(I103
I55
tp2491
a(I140
I3
tp2492
a(I121
I157
tp2493
a(I177
I2
tp2494
a(I159
I118
tp2495
a(I163
I115
tp2496
a(I201
I132
tp2497
a(I130
I152
tp2498
a(I153
I41
tp2499
a(I45
I11
tp2500
a(I49
I72
tp2501
a(I159
I7
tp2502
a(I92
I42
tp2503
a(I183
I157
tp2504
a(I45
I156
tp2505
a(I48
I128
tp2506
a(I196
I24
tp2507
a(I72
I6
tp2508
a(I96
I156
tp2509
a(I152
I158
tp2510
a(I44
I84
tp2511
a(I48
I31
tp2512
a(I215
I157
tp2513
a(I54
I5
tp2514
a(I77
I156
tp2515
a(I152
I13
tp2516
a(I215
I114
tp2517
a(I91
I0
tp2518
a(I81
I106
tp2519
a(I87
I52
tp2520
a(I57
I1
tp2521
a(I186
I142
tp2522
a(I205
I137
tp2523
a(I43
I50
tp2524
a(I139
I155
tp2525
a(I43
I67
tp2526
a(I210
I118
tp2527
a(I214
I40
tp2528
a(I190
I1
tp2529
a(I137
I155
tp2530
a(I156
I145
tp2531
a(I86
I86
tp2532
a(I42
I24
tp2533
a(I203
I134
tp2534
a(I156
I0
tp2535
a(I135
I144
tp2536
a(I217
I22
tp2537
a(I180
I142
tp2538
a(I146
I106
tp2539
a(I75
I80
tp2540
a(I166
I105
tp2541
a(I169
I155
tp2542
a(I99
I86
tp2543
a(I193
I13
tp2544
a(I122
I157
tp2545
a(I51
I155
tp2546
a(I217
I135
tp2547
a(I139
I144
tp2548
a(I47
I79
tp2549
a(I210
I44
tp2550
a(I51
I8
tp2551
a(I145
I51
tp2552
a(I165
I48
tp2553
a(I98
I117
tp2554
a(I47
I60
tp2555
a(I88
I3
tp2556
a(I141
I7
tp2557
a(I84
I55
tp2558
a(I212
I108
tp2559
a(I178
I12
tp2560
a(I141
I152
tp2561
a(I70
I6
tp2562
a(I74
I77
tp2563
a(I192
I144
tp2564
a(I49
I141
tp2565
a(I107
I15
tp2566
a(I168
I153
tp2567
a(I173
I152
tp2568
a(I46
I94
tp2569
a(I174
I147
tp2570
a(I197
I18
tp2571
a(I55
I148
tp2572
a(I187
I4
tp2573
a(I102
I145
tp2574
a(I49
I27
tp2575
a(I159
I106
tp2576
a(I206
I0
tp2577
a(I163
I111
tp2578
a(I55
I5
tp2579
a(I206
I147
tp2580
a(I153
I5
tp2581
a(I45
I111
tp2582
a(I49
I116
tp2583
a(I92
I14
tp2584
a(I206
I2
tp2585
a(I45
I128
tp2586
a(I203
I28
tp2587
a(I44
I56
tp2588
a(I172
I5
tp2589
a(I48
I59
tp2590
a(I162
I47
tp2591
a(I152
I105
tp2592
a(I134
I73
tp2593
a(I138
I4
tp2594
a(I87
I107
tp2595
a(I215
I22
tp2596
a(I162
I158
tp2597
a(I43
I129
tp2598
a(I81
I86
tp2599
a(I209
I153
tp2600
a(I67
I7
tp2601
a(I91
I157
tp2602
a(I147
I159
tp2603
a(I43
I30
tp2604
a(I104
I0
tp2605
a(I147
I12
tp2606
a(I123
I157
tp2607
a(I86
I3
tp2608
a(I214
I52
tp2609
a(I52
I151
tp2610
a(I184
I7
tp2611
a(I42
I109
tp2612
a(I52
I6
tp2613
a(I202
I139
tp2614
a(I213
I117
tp2615
a(I142
I51
tp2616
a(I203
I3
tp2617
a(I132
I13
tp2618
a(I85
I43
tp2619
a(I195
I133
tp2620
a(I169
I0
tp2621
a(I151
I144
tp2622
a(I193
I154
tp2623
a(I47
I99
tp2624
a(I216
I37
tp2625
a(I71
I153
tp2626
a(I94
I74
tp2627
a(I151
I1
tp2628
a(I212
I17
tp2629
a(I141
I43
tp2630
a(I164
I156
tp2631
a(I209
I14
tp2632
a(I151
I118
tp2633
a(I46
I152
tp2634
a(I84
I75
tp2635
a(I212
I128
tp2636
a(I117
I13
tp2637
a(I46
I11
tp2638
a(I140
I116
tp2639
a(I164
I114
tp2640
a(I93
I52
tp2641
a(I83
I2
tp2642
a(I46
I122
tp2643
a(I215
I16
tp2644
a(I173
I13
tp2645
a(I49
I7
tp2646
a(I197
I135
tp2647
a(I195
I18
tp2648
a(I187
I145
tp2649
a(I82
I73
tp2650
a(I45
I83
tp2651
a(I102
I12
tp2652
a(I49
I144
tp2653
a(I200
I4
tp2654
a(I163
I152
tp2655
a(I116
I152
tp2656
a(I44
I141
tp2657
a(I48
I72
tp2658
a(I200
I147
tp2659
a(I182
I7
tp2660
a(I148
I147
tp2661
a(I78
I84
tp2662
a(I44
I28
tp2663
a(I48
I39
tp2664
a(I195
I152
tp2665
a(I162
I51
tp2666
a(I185
I146
tp2667
a(I148
I2
tp2668
a(I87
I15
tp2669
a(I215
I58
tp2670
a(I91
I72
tp2671
a(I185
I3
tp2672
a(I77
I53
tp2673
a(I209
I133
tp2674
a(I167
I4
tp2675
a(I80
I118
tp2676
a(I43
I122
tp2677
a(I181
I17
tp2678
a(I143
I47
tp2679
a(I147
I40
tp2680
a(I204
I15
tp2681
a(I80
I5
tp2682
a(I133
I5
tp2683
a(I194
I21
tp2684
a(I76
I81
tp2685
a(I204
I158
tp2686
a(I42
I65
tp2687
a(I62
I4
tp2688
a(I86
I158
tp2689
a(I184
I146
tp2690
a(I132
I82
tp2691
a(I99
I1
tp2692
a(I142
I15
tp2693
a(I95
I85
tp2694
a(I118
I158
tp2695
a(I65
I2
tp2696
a(I47
I150
tp2697
a(I216
I146
tp2698
a(I179
I6
tp2699
a(I145
I106
tp2700
a(I98
I74
tp2701
a(I47
I7
tp2702
a(I216
I1
tp2703
a(I211
I99
tp2704
a(I212
I53
tp2705
a(I198
I0
tp2706
a(I168
I51
tp2707
a(I131
I73
tp2708
a(I50
I11
tp2709
a(I164
I7
tp2710
a(I211
I6
tp2711
a(I188
I157
tp2712
a(I46
I39
tp2713
a(I50
I154
tp2714
a(I130
I2
tp2715
a(I117
I146
tp2716
a(I211
I45
tp2717
a(I82
I154
tp2718
a(I45
I38
tp2719
a(I194
I15
tp2720
a(I49
I35
tp2721
a(I72
I156
tp2722
a(I96
I2
tp2723
a(I102
I40
tp2724
a(I149
I105
tp2725
a(I78
I1
tp2726
a(I44
I113
tp2727
a(I135
I74
tp2728
a(I48
I116
tp2729
a(I200
I143
tp2730
a(I44
I0
tp2731
a(I215
I105
tp2732
a(I77
I72
tp2733
a(I205
I19
tp2734
a(I195
I5
tp2735
a(I158
I155
tp2736
a(I91
I84
tp2737
a(I111
I153
tp2738
a(I208
I136
tp2739
a(I214
I146
tp2740
a(I161
I6
tp2741
a(I143
I146
tp2742
a(I167
I40
tp2743
a(I80
I82
tp2744
a(I43
I102
tp2745
a(I190
I155
tp2746
a(I214
I13
tp2747
a(I143
I3
tp2748
a(I56
I155
tp2749
a(I210
I104
tp2750
a(I86
I75
tp2751
a(I214
I124
tp2752
a(I180
I4
tp2753
a(I56
I10
tp2754
a(I76
I117
tp2755
a(I204
I130
tp2756
a(I42
I37
tp2757
a(I132
I147
tp2758
a(I217
I57
tp2759
a(I146
I7
tp2760
a(I213
I45
tp2761
a(I89
I119
tp2762
a(I217
I42
tp2763
a(I199
I14
tp2764
a(I75
I4
tp2765
a(I95
I73
tp2766
a(I189
I20
tp2767
a(I199
I142
tp2768
a(I213
I158
tp2769
a(I216
I110
tp2770
a(I142
I154
tp2771
a(I112
I15
tp2772
a(I47
I27
tp2773
a(I88
I40
tp2774
a(I216
I29
tp2775
a(I179
I147
tp2776
a(I112
I158
tp2777
a(I94
I2
tp2778
a(I192
I6
tp2779
a(I216
I100
tp2780
a(I141
I115
tp2781
a(I144
I153
tp2782
a(I74
I86
tp2783
a(I168
I47
tp2784
a(I97
I159
tp2785
a(I60
I5
tp2786
a(I211
I147
tp2787
a(I174
I5
tp2788
a(I144
I40
tp2789
a(I217
I112
tp2790
a(I46
I67
tp2791
a(I103
I54
tp2792
a(I177
I1
tp2793
a(I163
I114
tp2794
a(I201
I139
tp2795
a(I130
I153
tp2796
a(I153
I40
tp2797
a(I45
I10
tp2798
a(I42
I141
tp2799
a(I49
I79
tp2800
a(I159
I6
tp2801
a(I92
I43
tp2802
a(I183
I156
tp2803
a(I45
I155
tp2804
a(I48
I129
tp2805
a(I196
I25
tp2806
a(I72
I7
tp2807
a(I96
I157
tp2808
a(I152
I159
tp2809
a(I44
I85
tp2810
a(I48
I16
tp2811
a(I215
I156
tp2812
a(I128
I152
tp2813
a(I77
I155
tp2814
a(I152
I14
tp2815
a(I210
I138
tp2816
a(I91
I3
tp2817
a(I81
I105
tp2818
a(I87
I55
tp2819
a(I57
I0
tp2820
a(I205
I136
tp2821
a(I43
I53
tp2822
a(I43
I66
tp2823
a(I122
I5
tp2824
a(I214
I41
tp2825
a(I42
I118
tp2826
a(I190
I6
tp2827
a(I137
I154
tp2828
a(I156
I146
tp2829
a(I86
I87
tp2830
a(I203
I137
tp2831
a(I132
I155
tp2832
a(I156
I1
tp2833
a(I217
I21
tp2834
a(I180
I143
tp2835
a(I146
I107
tp2836
a(I75
I83
tp2837
a(I166
I110
tp2838
a(I169
I154
tp2839
a(I193
I12
tp2840
a(I122
I154
tp2841
a(I51
I154
tp2842
a(I217
I134
tp2843
a(I198
I139
tp2844
a(I169
I43
tp2845
a(I122
I13
tp2846
a(I175
I5
tp2847
a(I51
I11
tp2848
a(I145
I50
tp2849
a(I47
I63
tp2850
a(I88
I4
tp2851
a(I141
I6
tp2852
a(I212
I109
tp2853
a(I178
I13
tp2854
a(I70
I7
tp2855
a(I74
I74
tp2856
a(I192
I145
tp2857
a(I107
I14
tp2858
a(I168
I154
tp2859
a(I83
I105
tp2860
a(I121
I158
tp2861
a(I174
I144
tp2862
a(I197
I17
tp2863
a(I73
I3
tp2864
a(I55
I151
tp2865
a(I187
I7
tp2866
a(I153
I155
tp2867
a(I139
I152
tp2868
a(I163
I110
tp2869
a(I55
I4
tp2870
a(I198
I26
tp2871
a(I206
I144
tp2872
a(I153
I4
tp2873
a(I45
I110
tp2874
a(I49
I107
tp2875
a(I92
I15
tp2876
a(I206
I3
tp2877
a(I44
I57
tp2878
a(I172
I6
tp2879
a(I48
I60
tp2880
a(I196
I140
tp2881
a(I162
I44
tp2882
a(I152
I106
tp2883
a(I134
I78
tp2884
a(I138
I5
tp2885
a(I87
I106
tp2886
a(I125
I147
tp2887
a(I162
I159
tp2888
a(I43
I128
tp2889
a(I81
I85
tp2890
a(I209
I152
tp2891
a(I139
I6
tp2892
a(I157
I152
tp2893
a(I91
I156
tp2894
a(I147
I158
tp2895
a(I43
I17
tp2896
a(I104
I1
tp2897
a(I147
I15
tp2898
a(I104
I144
tp2899
a(I123
I156
tp2900
a(I86
I0
tp2901
a(I214
I53
tp2902
a(I186
I18
tp2903
a(I42
I106
tp2904
a(I123
I13
tp2905
a(I52
I7
tp2906
a(I213
I116
tp2907
a(I142
I48
tp2908
a(I203
I2
tp2909
a(I42
I140
tp2910
a(I99
I117
tp2911
a(I85
I42
tp2912
a(I169
I7
tp2913
a(I151
I147
tp2914
a(I193
I153
tp2915
a(I47
I98
tp2916
a(I216
I38
tp2917
a(I108
I12
tp2918
a(I71
I152
tp2919
a(I94
I75
tp2920
a(I151
I0
tp2921
a(I212
I18
tp2922
a(I141
I42
tp2923
a(I164
I157
tp2924
a(I211
I113
tp2925
a(I46
I153
tp2926
a(I84
I84
tp2927
a(I212
I129
tp2928
a(I117
I12
tp2929
a(I154
I6
tp2930
a(I46
I8
tp2931
a(I140
I117
tp2932
a(I144
I112
tp2933
a(I164
I115
tp2934
a(I211
I20
tp2935
a(I83
I5
tp2936
a(I46
I123
tp2937
a(I153
I119
tp2938
a(I173
I12
tp2939
a(I49
I6
tp2940
a(I197
I134
tp2941
a(I211
I59
tp2942
a(I187
I144
tp2943
a(I45
I82
tp2944
a(I194
I1
tp2945
a(I102
I13
tp2946
a(I49
I151
tp2947
a(I200
I5
tp2948
a(I163
I155
tp2949
a(I78
I42
tp2950
a(I116
I153
tp2951
a(I44
I142
tp2952
a(I48
I73
tp2953
a(I68
I4
tp2954
a(I182
I4
tp2955
a(I148
I156
tp2956
a(I78
I85
tp2957
a(I44
I29
tp2958
a(I195
I155
tp2959
a(I162
I48
tp2960
a(I185
I145
tp2961
a(I148
I3
tp2962
a(I87
I14
tp2963
a(I215
I53
tp2964
a(I91
I75
tp2965
a(I185
I2
tp2966
a(I77
I52
tp2967
a(I209
I132
tp2968
a(I167
I7
tp2969
a(I80
I119
tp2970
a(I43
I125
tp2971
a(I191
I141
tp2972
a(I143
I46
tp2973
a(I147
I43
tp2974
a(I80
I6
tp2975
a(I133
I4
tp2976
a(I194
I18
tp2977
a(I76
I82
tp2978
a(I204
I159
tp2979
a(I42
I78
tp2980
a(I62
I5
tp2981
a(I203
I143
tp2982
a(I45
I27
tp2983
a(I86
I159
tp2984
a(I184
I147
tp2985
a(I132
I83
tp2986
a(I99
I0
tp2987
a(I206
I136
tp2988
a(I142
I12
tp2989
a(I95
I84
tp2990
a(I99
I145
tp2991
a(I118
I159
tp2992
a(I65
I1
tp2993
a(I47
I145
tp2994
a(I210
I55
tp2995
a(I216
I147
tp2996
a(I145
I105
tp2997
a(I98
I75
tp2998
a(I118
I14
tp2999
a(I47
I6
tp3000
a(I216
I2
tp3001
a(I212
I54
tp3002
a(I210
I16
tp3003
a(I198
I1
tp3004
a(I168
I52
tp3005
a(I131
I72
tp3006
a(I84
I104
tp3007
a(I50
I8
tp3008
a(I164
I0
tp3009
a(I188
I158
tp3010
a(I46
I36
tp3011
a(I103
I13
tp3012
a(I50
I155
tp3013
a(I130
I3
tp3014
a(I117
I145
tp3015
a(I82
I155
tp3016
a(I45
I37
tp3017
a(I49
I34
tp3018
a(I135
I5
tp3019
a(I72
I157
tp3020
a(I96
I3
tp3021
a(I149
I7
tp3022
a(I82
I42
tp3023
a(I102
I41
tp3024
a(I139
I49
tp3025
a(I206
I28
tp3026
a(I149
I104
tp3027
a(I78
I6
tp3028
a(I44
I114
tp3029
a(I210
I134
tp3030
a(I48
I117
tp3031
a(I44
I1
tp3032
a(I215
I104
tp3033
a(I205
I18
tp3034
a(I195
I4
tp3035
a(I158
I152
tp3036
a(I210
I30
tp3037
a(I91
I87
tp3038
a(I111
I152
tp3039
a(I208
I137
tp3040
a(I63
I5
tp3041
a(I214
I147
tp3042
a(I161
I5
tp3043
a(I143
I157
tp3044
a(I213
I145
tp3045
a(I167
I43
tp3046
a(I80
I83
tp3047
a(I43
I89
tp3048
a(I190
I152
tp3049
a(I214
I2
tp3050
a(I143
I2
tp3051
a(I56
I156
tp3052
a(I86
I72
tp3053
a(I214
I125
tp3054
a(I180
I5
tp3055
a(I56
I11
tp3056
a(I202
I130
tp3057
a(I76
I118
tp3058
a(I204
I131
tp3059
a(I42
I34
tp3060
a(I217
I56
tp3061
a(I146
I4
tp3062
a(I213
I44
tp3063
a(I89
I118
tp3064
a(I75
I7
tp3065
a(I95
I72
tp3066
a(I189
I19
tp3067
a(I213
I157
tp3068
a(I216
I111
tp3069
a(I142
I155
tp3070
a(I112
I0
tp3071
a(I198
I133
tp3072
a(I47
I26
tp3073
a(I88
I41
tp3074
a(I216
I30
tp3075
a(I179
I146
tp3076
a(I112
I159
tp3077
a(I94
I3
tp3078
a(I209
I23
tp3079
a(I192
I7
tp3080
a(I141
I114
tp3081
a(I144
I154
tp3082
a(I74
I87
tp3083
a(I97
I158
tp3084
a(I60
I6
tp3085
a(I211
I146
tp3086
a(I144
I41
tp3087
a(I202
I21
tp3088
a(I97
I15
tp3089
a(I46
I64
tp3090
a(I126
I146
tp3091
a(I177
I0
tp3092
a(I163
I117
tp3093
a(I201
I138
tp3094
a(I45
I9
tp3095
a(I49
I78
tp3096
a(I159
I1
tp3097
a(I183
I159
tp3098
a(I198
I20
tp3099
a(I82
I14
tp3100
a(I45
I154
tp3101
a(I48
I130
tp3102
a(I196
I26
tp3103
a(I96
I158
tp3104
a(I44
I86
tp3105
a(I48
I17
tp3106
a(I107
I144
tp3107
a(I215
I159
tp3108
a(I128
I153
tp3109
a(I77
I154
tp3110
a(I152
I15
tp3111
a(I138
I110
tp3112
a(I215
I12
tp3113
a(I91
I2
tp3114
a(I77
I107
tp3115
a(I81
I104
tp3116
a(I87
I54
tp3117
a(I57
I7
tp3118
a(I205
I135
tp3119
a(I43
I52
tp3120
a(I43
I69
tp3121
a(I214
I46
tp3122
a(I211
I142
tp3123
a(I42
I119
tp3124
a(I190
I7
tp3125
a(I137
I153
tp3126
a(I156
I147
tp3127
a(I86
I84
tp3128
a(I203
I136
tp3129
a(I42
I6
tp3130
a(I156
I2
tp3131
a(I217
I20
tp3132
a(I146
I104
tp3133
a(I75
I82
tp3134
a(I113
I155
tp3135
a(I166
I111
tp3136
a(I169
I153
tp3137
a(I193
I3
tp3138
a(I122
I155
tp3139
a(I51
I157
tp3140
a(I217
I133
tp3141
a(I169
I42
tp3142
a(I47
I73
tp3143
a(I175
I4
tp3144
a(I51
I10
tp3145
a(I145
I49
tp3146
a(I211
I28
tp3147
a(I47
I62
tp3148
a(I88
I5
tp3149
a(I141
I5
tp3150
a(I208
I18
tp3151
a(I46
I130
tp3152
a(I212
I110
tp3153
a(I70
I4
tp3154
a(I74
I75
tp3155
a(I168
I12
tp3156
a(I192
I146
tp3157
a(I107
I1
tp3158
a(I168
I155
tp3159
a(I97
I43
tp3160
a(I214
I24
tp3161
a(I83
I104
tp3162
a(I46
I92
tp3163
a(I174
I145
tp3164
a(I103
I85
tp3165
a(I197
I16
tp3166
a(I73
I2
tp3167
a(I55
I150
tp3168
a(I211
I34
tp3169
a(I187
I6
tp3170
a(I153
I154
tp3171
a(I49
I25
tp3172
a(I55
I7
tp3173
a(I206
I145
tp3174
a(I45
I109
tp3175
a(I49
I106
tp3176
a(I182
I142
tp3177
a(I49
I135
tp3178
a(I44
I58
tp3179
a(I172
I7
tp3180
a(I48
I61
tp3181
a(I158
I54
tp3182
a(I196
I141
tp3183
a(I162
I45
tp3184
a(I148
I104
tp3185
a(I152
I107
tp3186
a(I134
I79
tp3187
a(I138
I2
tp3188
a(I125
I146
tp3189
a(I162
I156
tp3190
a(I54
I150
tp3191
a(I43
I131
tp3192
a(I81
I84
tp3193
a(I209
I159
tp3194
a(I91
I159
tp3195
a(I43
I16
tp3196
a(I139
I158
tp3197
a(I147
I14
tp3198
a(I104
I145
tp3199
a(I123
I159
tp3200
a(I86
I1
tp3201
a(I42
I107
tp3202
a(I123
I12
tp3203
a(I52
I0
tp3204
a(I210
I112
tp3205
a(I213
I115
tp3206
a(I142
I49
tp3207
a(I203
I5
tp3208
a(I132
I15
tp3209
a(I99
I116
tp3210
a(I85
I41
tp3211
a(I169
I6
tp3212
a(I151
I146
tp3213
a(I193
I152
tp3214
a(I47
I109
tp3215
a(I210
I41
tp3216
a(I216
I39
tp3217
a(I108
I13
tp3218
a(I71
I155
tp3219
a(I94
I72
tp3220
a(I151
I3
tp3221
a(I212
I19
tp3222
a(I141
I41
tp3223
a(I108
I156
tp3224
a(I164
I158
tp3225
a(I189
I157
tp3226
a(I188
I4
tp3227
a(I46
I158
tp3228
a(I84
I85
tp3229
a(I212
I130
tp3230
a(I88
I144
tp3231
a(I217
I105
tp3232
a(I207
I137
tp3233
a(I154
I7
tp3234
a(I46
I9
tp3235
a(I140
I118
tp3236
a(I144
I113
tp3237
a(I97
I55
tp3238
a(I83
I4
tp3239
a(I46
I120
tp3240
a(I153
I118
tp3241
a(I132
I6
tp3242
a(I49
I5
tp3243
a(I197
I133
tp3244
a(I163
I13
tp3245
a(I187
I147
tp3246
a(I45
I81
tp3247
a(I102
I2
tp3248
a(I49
I150
tp3249
a(I200
I6
tp3250
a(I163
I154
tp3251
a(I211
I116
tp3252
a(I78
I43
tp3253
a(I116
I154
tp3254
a(I44
I143
tp3255
a(I48
I74
tp3256
a(I68
I5
tp3257
a(I182
I5
tp3258
a(I148
I157
tp3259
a(I189
I14
tp3260
a(I44
I30
tp3261
a(I195
I154
tp3262
a(I162
I49
tp3263
a(I186
I20
tp3264
a(I185
I144
tp3265
a(I148
I12
tp3266
a(I215
I52
tp3267
a(I91
I74
tp3268
a(I185
I1
tp3269
a(I167
I6
tp3270
a(I80
I104
tp3271
a(I43
I124
tp3272
a(I191
I140
tp3273
a(I143
I41
tp3274
a(I147
I42
tp3275
a(I80
I7
tp3276
a(I133
I3
tp3277
a(I194
I19
tp3278
a(I215
I131
tp3279
a(I76
I83
tp3280
a(I204
I152
tp3281
a(I42
I79
tp3282
a(I86
I156
tp3283
a(I217
I35
tp3284
a(I99
I3
tp3285
a(I213
I23
tp3286
a(I142
I13
tp3287
a(I95
I87
tp3288
a(I99
I144
tp3289
a(I118
I156
tp3290
a(I65
I0
tp3291
a(I47
I144
tp3292
a(I145
I104
tp3293
a(I98
I72
tp3294
a(I118
I15
tp3295
a(I47
I1
tp3296
a(I216
I3
tp3297
a(I212
I55
tp3298
a(I198
I6
tp3299
a(I168
I53
tp3300
a(I131
I75
tp3301
a(I84
I105
tp3302
a(I50
I9
tp3303
a(I164
I1
tp3304
a(I188
I159
tp3305
a(I46
I37
tp3306
a(I103
I12
tp3307
a(I50
I152
tp3308
a(I130
I0
tp3309
a(I117
I144
tp3310
a(I103
I157
tp3311
a(I183
I5
tp3312
a(I82
I152
tp3313
a(I45
I36
tp3314
a(I83
I145
tp3315
a(I49
I33
tp3316
a(I72
I158
tp3317
a(I163
I41
tp3318
a(I96
I4
tp3319
a(I149
I6
tp3320
a(I82
I43
tp3321
a(I139
I48
tp3322
a(I149
I119
tp3323
a(I78
I7
tp3324
a(I44
I115
tp3325
a(I210
I135
tp3326
a(I48
I118
tp3327
a(I105
I107
tp3328
a(I152
I52
tp3329
a(I44
I2
tp3330
a(I158
I14
tp3331
a(I211
I18
tp3332
a(I205
I17
tp3333
a(I81
I3
tp3334
a(I195
I7
tp3335
a(I158
I153
tp3336
a(I91
I86
tp3337
a(I111
I155
tp3338
a(I208
I138
tp3339
a(I63
I4
tp3340
a(I214
I144
tp3341
a(I161
I4
tp3342
a(I143
I156
tp3343
a(I167
I42
tp3344
a(I80
I84
tp3345
a(I43
I88
tp3346
a(I190
I153
tp3347
a(I214
I3
tp3348
a(I143
I13
tp3349
a(I56
I157
tp3350
a(I214
I134
tp3351
a(I86
I73
tp3352
a(I214
I114
tp3353
a(I180
I6
tp3354
a(I76
I119
tp3355
a(I42
I35
tp3356
a(I217
I63
tp3357
a(I146
I5
tp3358
a(I207
I134
tp3359
a(I213
I43
tp3360
a(I89
I117
tp3361
a(I75
I6
tp3362
a(I95
I75
tp3363
a(I189
I18
tp3364
a(I194
I153
tp3365
a(I213
I156
tp3366
a(I157
I3
tp3367
a(I142
I152
tp3368
a(I112
I1
tp3369
a(I47
I37
tp3370
a(I88
I42
tp3371
a(I216
I31
tp3372
a(I112
I144
tp3373
a(I94
I0
tp3374
a(I141
I113
tp3375
a(I144
I155
tp3376
a(I208
I0
tp3377
a(I74
I84
tp3378
a(I97
I157
tp3379
a(I60
I7
tp3380
a(I144
I42
tp3381
a(I211
I13
tp3382
a(I97
I14
tp3383
a(I46
I65
tp3384
a(I126
I147
tp3385
a(I177
I7
tp3386
a(I163
I116
tp3387
a(I201
I137
tp3388
a(I211
I48
tp3389
a(I45
I8
tp3390
a(I49
I77
tp3391
a(I159
I0
tp3392
a(I183
I158
tp3393
a(I207
I18
tp3394
a(I82
I15
tp3395
a(I45
I153
tp3396
a(I48
I131
tp3397
a(I196
I27
tp3398
a(I159
I145
tp3399
a(I96
I159
tp3400
a(I44
I87
tp3401
a(I48
I18
tp3402
a(I215
I158
tp3403
a(I162
I6
tp3404
a(I128
I154
tp3405
a(I77
I153
tp3406
a(I138
I111
tp3407
a(I158
I106
tp3408
a(I215
I15
tp3409
a(I91
I5
tp3410
a(I114
I158
tp3411
a(I77
I106
tp3412
a(I110
I146
tp3413
a(I57
I6
tp3414
a(I205
I134
tp3415
a(I43
I55
tp3416
a(I43
I68
tp3417
a(I137
I15
tp3418
a(I214
I47
tp3419
a(I76
I4
tp3420
a(I42
I116
tp3421
a(I190
I4
tp3422
a(I137
I152
tp3423
a(I210
I101
tp3424
a(I86
I85
tp3425
a(I203
I139
tp3426
a(I42
I7
tp3427
a(I42
I26
tp3428
a(I215
I13
tp3429
a(I156
I3
tp3430
a(I206
I131
tp3431
a(I217
I27
tp3432
a(I146
I105
tp3433
a(I75
I85
tp3434
a(I113
I154
tp3435
a(I166
I108
tp3436
a(I169
I152
tp3437
a(I42
I150
tp3438
a(I193
I2
tp3439
a(I122
I152
tp3440
a(I210
I62
tp3441
a(I51
I156
tp3442
a(I217
I132
tp3443
a(I217
I45
tp3444
a(I169
I41
tp3445
a(I199
I133
tp3446
a(I47
I72
tp3447
a(I175
I7
tp3448
a(I145
I48
tp3449
a(I207
I142
tp3450
a(I47
I57
tp3451
a(I88
I6
tp3452
a(I141
I4
tp3453
a(I186
I138
tp3454
a(I46
I131
tp3455
a(I212
I111
tp3456
a(I70
I5
tp3457
a(I74
I72
tp3458
a(I168
I13
tp3459
a(I192
I147
tp3460
a(I107
I0
tp3461
a(I168
I156
tp3462
a(I97
I42
tp3463
a(I83
I107
tp3464
a(I46
I93
tp3465
a(I103
I84
tp3466
a(I73
I1
tp3467
a(I153
I153
tp3468
a(I139
I154
tp3469
a(I55
I6
tp3470
a(I45
I108
tp3471
a(I49
I105
tp3472
a(I206
I23
tp3473
a(I182
I143
tp3474
a(I206
I1
tp3475
a(I115
I145
tp3476
a(I44
I59
tp3477
a(I172
I0
tp3478
a(I48
I62
tp3479
a(I158
I55
tp3480
a(I196
I142
tp3481
a(I162
I42
tp3482
a(I148
I105
tp3483
a(I189
I0
tp3484
a(I134
I76
tp3485
a(I101
I55
tp3486
a(I138
I3
tp3487
a(I125
I145
tp3488
a(I162
I157
tp3489
a(I54
I151
tp3490
a(I43
I130
tp3491
a(I81
I75
tp3492
a(I209
I158
tp3493
a(I138
I146
tp3494
a(I91
I158
tp3495
a(I43
I19
tp3496
a(I104
I3
tp3497
a(I67
I153
tp3498
a(I170
I146
tp3499
a(I47
I77
tp3500
a(I104
I146
tp3501
a(I123
I158
tp3502
a(I86
I6
tp3503
a(I76
I40
tp3504
a(I42
I104
tp3505
a(I123
I15
tp3506
a(I89
I147
tp3507
a(I52
I1
tp3508
a(I213
I114
tp3509
a(I142
I54
tp3510
a(I203
I4
tp3511
a(I42
I138
tp3512
a(I99
I119
tp3513
a(I85
I40
tp3514
a(I71
I5
tp3515
a(I169
I5
tp3516
a(I193
I159
tp3517
a(I47
I108
tp3518
a(I216
I40
tp3519
a(I108
I14
tp3520
a(I71
I154
tp3521
a(I94
I73
tp3522
a(I151
I2
tp3523
a(I212
I28
tp3524
a(I141
I40
tp3525
a(I203
I31
tp3526
a(I108
I157
tp3527
a(I164
I159
tp3528
a(I188
I5
tp3529
a(I46
I159
tp3530
a(I84
I86
tp3531
a(I212
I131
tp3532
a(I88
I145
tp3533
a(I207
I136
tp3534
a(I154
I4
tp3535
a(I46
I14
tp3536
a(I140
I119
tp3537
a(I144
I114
tp3538
a(I97
I54
tp3539
a(I83
I7
tp3540
a(I46
I121
tp3541
a(I153
I117
tp3542
a(I120
I0
tp3543
a(I49
I4
tp3544
a(I197
I132
tp3545
a(I163
I12
tp3546
a(I187
I146
tp3547
a(I45
I80
tp3548
a(I102
I3
tp3549
a(I49
I149
tp3550
a(I200
I7
tp3551
a(I163
I157
tp3552
a(I78
I40
tp3553
a(I116
I155
tp3554
a(I44
I136
tp3555
a(I48
I75
tp3556
a(I68
I6
tp3557
a(I92
I156
tp3558
a(I148
I158
tp3559
a(I44
I31
tp3560
a(I195
I157
tp3561
a(I148
I13
tp3562
a(I101
I43
tp3563
a(I215
I55
tp3564
a(I185
I0
tp3565
a(I167
I1
tp3566
a(I80
I105
tp3567
a(I43
I127
tp3568
a(I191
I143
tp3569
a(I143
I40
tp3570
a(I211
I135
tp3571
a(I133
I2
tp3572
a(I194
I16
tp3573
a(I76
I76
tp3574
a(I204
I153
tp3575
a(I42
I76
tp3576
a(I133
I147
tp3577
a(I86
I157
tp3578
a(I217
I34
tp3579
a(I99
I2
tp3580
a(I62
I154
tp3581
a(I213
I22
tp3582
a(I165
I147
tp3583
a(I95
I86
tp3584
a(I99
I147
tp3585
a(I118
I157
tp3586
a(I65
I7
tp3587
a(I47
I147
tp3588
a(I213
I135
tp3589
a(I145
I111
tp3590
a(I94
I154
tp3591
a(I98
I73
tp3592
a(I118
I12
tp3593
a(I47
I0
tp3594
a(I216
I4
tp3595
a(I208
I25
tp3596
a(I212
I48
tp3597
a(I198
I7
tp3598
a(I168
I54
tp3599
a(I131
I74
tp3600
a(I84
I106
tp3601
a(I50
I6
tp3602
a(I164
I2
tp3603
a(I188
I152
tp3604
a(I46
I42
tp3605
a(I103
I15
tp3606
a(I50
I153
tp3607
a(I130
I1
tp3608
a(I46
I88
tp3609
a(I117
I159
tp3610
a(I103
I156
tp3611
a(I183
I4
tp3612
a(I82
I153
tp3613
a(I45
I35
tp3614
a(I83
I144
tp3615
a(I49
I32
tp3616
a(I72
I159
tp3617
a(I163
I40
tp3618
a(I96
I5
tp3619
a(I149
I5
tp3620
a(I82
I40
tp3621
a(I48
I152
tp3622
a(I139
I51
tp3623
a(I149
I118
tp3624
a(I78
I4
tp3625
a(I44
I108
tp3626
a(I210
I132
tp3627
a(I48
I119
tp3628
a(I105
I106
tp3629
a(I115
I1
tp3630
a(I152
I53
tp3631
a(I44
I3
tp3632
a(I158
I15
tp3633
a(I215
I106
tp3634
a(I205
I16
tp3635
a(I81
I2
tp3636
a(I101
I79
tp3637
a(I195
I6
tp3638
a(I158
I158
tp3639
a(I111
I154
tp3640
a(I208
I139
tp3641
a(I63
I7
tp3642
a(I214
I145
tp3643
a(I87
I157
tp3644
a(I143
I159
tp3645
a(I80
I85
tp3646
a(I43
I91
tp3647
a(I190
I158
tp3648
a(I45
I59
tp3649
a(I214
I0
tp3650
a(I143
I12
tp3651
a(I56
I158
tp3652
a(I119
I157
tp3653
a(I214
I115
tp3654
a(I180
I7
tp3655
a(I42
I32
tp3656
a(I203
I130
tp3657
a(I217
I62
tp3658
a(I83
I159
tp3659
a(I213
I42
tp3660
a(I89
I116
tp3661
a(I95
I74
tp3662
a(I189
I17
tp3663
a(I210
I48
tp3664
a(I216
I113
tp3665
a(I142
I153
tp3666
a(I112
I2
tp3667
a(I94
I118
tp3668
a(I47
I36
tp3669
a(I88
I43
tp3670
a(I213
I101
tp3671
a(I112
I145
tp3672
a(I94
I1
tp3673
a(I210
I13
tp3674
a(I141
I112
tp3675
a(I144
I156
tp3676
a(I74
I85
tp3677
a(I97
I156
tp3678
a(I60
I0
tp3679
a(I192
I136
tp3680
a(I144
I43
tp3681
a(I73
I155
tp3682
a(I97
I13
tp3683
a(I46
I70
tp3684
a(I126
I144
tp3685
a(I177
I6
tp3686
a(I163
I119
tp3687
a(I201
I136
tp3688
a(I45
I7
tp3689
a(I49
I76
tp3690
a(I159
I3
tp3691
a(I183
I153
tp3692
a(I82
I12
tp3693
a(I45
I152
tp3694
a(I48
I132
tp3695
a(I196
I4
tp3696
a(I159
I144
tp3697
a(I96
I144
tp3698
a(I44
I80
tp3699
a(I48
I19
tp3700
a(I215
I153
tp3701
a(I162
I7
tp3702
a(I128
I155
tp3703
a(I77
I152
tp3704
a(I138
I108
tp3705
a(I158
I107
tp3706
a(I215
I14
tp3707
a(I162
I118
tp3708
a(I91
I4
tp3709
a(I114
I159
tp3710
a(I77
I105
tp3711
a(I43
I153
tp3712
a(I110
I147
tp3713
a(I57
I5
tp3714
a(I205
I133
tp3715
a(I43
I54
tp3716
a(I104
I40
tp3717
a(I110
I2
tp3718
a(I43
I71
tp3719
a(I216
I112
tp3720
a(I137
I14
tp3721
a(I214
I44
tp3722
a(I76
I5
tp3723
a(I42
I117
tp3724
a(I190
I5
tp3725
a(I137
I159
tp3726
a(I86
I106
tp3727
a(I202
I143
tp3728
a(I203
I138
tp3729
a(I42
I4
tp3730
a(I66
I158
tp3731
a(I217
I26
tp3732
a(I75
I84
tp3733
a(I113
I153
tp3734
a(I166
I109
tp3735
a(I169
I159
tp3736
a(I42
I151
tp3737
a(I193
I1
tp3738
a(I122
I153
tp3739
a(I51
I159
tp3740
a(I217
I139
tp3741
a(I169
I40
tp3742
a(I98
I158
tp3743
a(I47
I75
tp3744
a(I175
I6
tp3745
a(I145
I55
tp3746
a(I47
I56
tp3747
a(I88
I7
tp3748
a(I141
I3
tp3749
a(I46
I128
tp3750
a(I212
I104
tp3751
a(I215
I121
tp3752
a(I74
I73
tp3753
a(I168
I14
tp3754
a(I107
I3
tp3755
a(I130
I86
tp3756
a(I168
I157
tp3757
a(I97
I41
tp3758
a(I79
I105
tp3759
a(I83
I106
tp3760
a(I46
I98
tp3761
a(I103
I87
tp3762
a(I73
I0
tp3763
a(I153
I152
tp3764
a(I49
I31
tp3765
a(I55
I1
tp3766
a(I187
I137
tp3767
a(I45
I107
tp3768
a(I49
I104
tp3769
a(I68
I156
tp3770
a(I182
I140
tp3771
a(I206
I6
tp3772
a(I44
I52
tp3773
a(I172
I1
tp3774
a(I48
I63
tp3775
a(I158
I52
tp3776
a(I196
I143
tp3777
a(I162
I43
tp3778
a(I148
I106
tp3779
a(I134
I77
tp3780
a(I172
I144
tp3781
a(I101
I54
tp3782
a(I138
I0
tp3783
a(I67
I5
tp3784
a(I125
I144
tp3785
a(I162
I154
tp3786
a(I54
I148
tp3787
a(I43
I133
tp3788
a(I81
I74
tp3789
a(I209
I157
tp3790
a(I191
I5
tp3791
a(I138
I147
tp3792
a(I91
I145
tp3793
a(I43
I18
tp3794
a(I104
I4
tp3795
a(I157
I6
tp3796
a(I194
I156
tp3797
a(I170
I147
tp3798
a(I214
I137
tp3799
a(I104
I147
tp3800
a(I123
I145
tp3801
a(I86
I7
tp3802
a(I76
I41
tp3803
a(I42
I105
tp3804
a(I123
I14
tp3805
a(I86
I118
tp3806
a(I89
I146
tp3807
a(I52
I2
tp3808
a(I213
I113
tp3809
a(I89
I3
tp3810
a(I142
I55
tp3811
a(I203
I7
tp3812
a(I42
I139
tp3813
a(I132
I158
tp3814
a(I99
I118
tp3815
a(I210
I126
tp3816
a(I85
I55
tp3817
a(I71
I4
tp3818
a(I215
I107
tp3819
a(I169
I4
tp3820
a(I155
I41
tp3821
a(I193
I158
tp3822
a(I47
I111
tp3823
a(I88
I116
tp3824
a(I216
I41
tp3825
a(I108
I15
tp3826
a(I61
I159
tp3827
a(I212
I29
tp3828
a(I108
I158
tp3829
a(I164
I152
tp3830
a(I131
I81
tp3831
a(I188
I6
tp3832
a(I46
I156
tp3833
a(I84
I87
tp3834
a(I212
I140
tp3835
a(I88
I146
tp3836
a(I93
I159
tp3837
a(I211
I2
tp3838
a(I207
I139
tp3839
a(I154
I5
tp3840
a(I46
I15
tp3841
a(I140
I112
tp3842
a(I144
I115
tp3843
a(I97
I53
tp3844
a(I79
I77
tp3845
a(I214
I29
tp3846
a(I83
I6
tp3847
a(I46
I126
tp3848
a(I211
I41
tp3849
a(I153
I116
tp3850
a(I120
I1
tp3851
a(I49
I59
tp3852
a(I163
I15
tp3853
a(I45
I79
tp3854
a(I102
I0
tp3855
a(I49
I148
tp3856
a(I163
I156
tp3857
a(I78
I41
tp3858
a(I44
I137
tp3859
a(I48
I76
tp3860
a(I68
I7
tp3861
a(I92
I157
tp3862
a(I148
I159
tp3863
a(I44
I24
tp3864
a(I195
I156
tp3865
a(I148
I14
tp3866
a(I63
I157
tp3867
a(I101
I42
tp3868
a(I215
I54
tp3869
a(I185
I7
tp3870
a(I124
I12
tp3871
a(I167
I0
tp3872
a(I80
I106
tp3873
a(I43
I126
tp3874
a(I191
I142
tp3875
a(I143
I43
tp3876
a(I167
I145
tp3877
a(I133
I1
tp3878
a(I194
I17
tp3879
a(I210
I108
tp3880
a(I76
I77
tp3881
a(I204
I154
tp3882
a(I42
I77
tp3883
a(I170
I6
tp3884
a(I133
I146
tp3885
a(I86
I146
tp3886
a(I217
I33
tp3887
a(I199
I145
tp3888
a(I99
I5
tp3889
a(I62
I155
tp3890
a(I213
I21
tp3891
a(I165
I146
tp3892
a(I99
I146
tp3893
a(I118
I146
tp3894
a(I65
I6
tp3895
a(I47
I146
tp3896
a(I213
I134
tp3897
a(I145
I110
tp3898
a(I94
I155
tp3899
a(I118
I13
tp3900
a(I155
I53
tp3901
a(I47
I3
tp3902
a(I210
I34
tp3903
a(I216
I5
tp3904
a(I94
I42
tp3905
a(I84
I4
tp3906
a(I212
I49
tp3907
a(I198
I4
tp3908
a(I189
I152
tp3909
a(I168
I55
tp3910
a(I131
I77
tp3911
a(I84
I107
tp3912
a(I50
I7
tp3913
a(I217
I108
tp3914
a(I164
I3
tp3915
a(I150
I106
tp3916
a(I188
I153
tp3917
a(I46
I43
tp3918
a(I103
I14
tp3919
a(I50
I150
tp3920
a(I211
I104
tp3921
a(I117
I158
tp3922
a(I103
I159
tp3923
a(I201
I147
tp3924
a(I183
I7
tp3925
a(I45
I34
tp3926
a(I83
I147
tp3927
a(I49
I39
tp3928
a(I163
I43
tp3929
a(I217
I51
tp3930
a(I96
I6
tp3931
a(I149
I4
tp3932
a(I82
I41
tp3933
a(I48
I153
tp3934
a(I139
I50
tp3935
a(I149
I117
tp3936
a(I78
I5
tp3937
a(I44
I109
tp3938
a(I210
I133
tp3939
a(I48
I104
tp3940
a(I105
I105
tp3941
a(I115
I0
tp3942
a(I152
I54
tp3943
a(I158
I12
tp3944
a(I210
I142
tp3945
a(I186
I17
tp3946
a(I205
I15
tp3947
a(I81
I1
tp3948
a(I101
I78
tp3949
a(I158
I159
tp3950
a(I213
I131
tp3951
a(I208
I140
tp3952
a(I63
I6
tp3953
a(I87
I156
tp3954
a(I143
I158
tp3955
a(I80
I86
tp3956
a(I43
I90
tp3957
a(I190
I159
tp3958
a(I214
I1
tp3959
a(I143
I15
tp3960
a(I56
I159
tp3961
a(I119
I156
tp3962
a(I214
I112
tp3963
a(I180
I0
tp3964
a(I42
I33
tp3965
a(I119
I13
tp3966
a(I217
I61
tp3967
a(I146
I3
tp3968
a(I213
I41
tp3969
a(I146
I146
tp3970
a(I169
I51
tp3971
a(I189
I16
tp3972
a(I213
I154
tp3973
a(I216
I114
tp3974
a(I142
I158
tp3975
a(I112
I3
tp3976
a(I165
I7
tp3977
a(I94
I119
tp3978
a(I98
I106
tp3979
a(I47
I39
tp3980
a(I178
I146
tp3981
a(I112
I146
tp3982
a(I94
I6
tp3983
a(I141
I111
tp3984
a(I144
I157
tp3985
a(I74
I82
tp3986
a(I97
I147
tp3987
a(I60
I1
tp3988
a(I192
I137
tp3989
a(I144
I44
tp3990
a(I73
I154
tp3991
a(I97
I12
tp3992
a(I150
I118
tp3993
a(I210
I31
tp3994
a(I46
I71
tp3995
a(I126
I145
tp3996
a(I79
I5
tp3997
a(I177
I5
tp3998
a(I163
I118
tp3999
a(I201
I143
tp4000
a(I45
I6
tp4001
a(I49
I67
tp4002
a(I159
I2
tp4003
a(I183
I152
tp4004
a(I82
I13
tp4005
a(I45
I151
tp4006
a(I48
I133
tp4007
a(I196
I5
tp4008
a(I159
I147
tp4009
a(I96
I145
tp4010
a(I44
I81
tp4011
a(I48
I20
tp4012
a(I215
I152
tp4013
a(I162
I4
tp4014
a(I128
I156
tp4015
a(I138
I109
tp4016
a(I158
I104
tp4017
a(I162
I119
tp4018
a(I91
I7
tp4019
a(I114
I156
tp4020
a(I77
I104
tp4021
a(I43
I152
tp4022
a(I110
I144
tp4023
a(I57
I4
tp4024
a(I205
I132
tp4025
a(I43
I41
tp4026
a(I104
I41
tp4027
a(I110
I3
tp4028
a(I43
I70
tp4029
a(I137
I13
tp4030
a(I214
I45
tp4031
a(I76
I6
tp4032
a(I42
I114
tp4033
a(I137
I158
tp4034
a(I86
I107
tp4035
a(I113
I15
tp4036
a(I42
I5
tp4037
a(I66
I159
tp4038
a(I217
I25
tp4039
a(I75
I87
tp4040
a(I113
I152
tp4041
a(I207
I141
tp4042
a(I169
I158
tp4043
a(I42
I148
tp4044
a(I193
I0
tp4045
a(I51
I158
tp4046
a(I89
I87
tp4047
a(I217
I138
tp4048
a(I169
I47
tp4049
a(I98
I159
tp4050
a(I194
I146
tp4051
a(I47
I74
tp4052
a(I175
I1
tp4053
a(I145
I54
tp4054
a(I98
I14
tp4055
a(I47
I59
tp4056
a(I141
I2
tp4057
a(I211
I109
tp4058
a(I151
I105
tp4059
a(I46
I129
tp4060
a(I212
I105
tp4061
a(I141
I147
tp4062
a(I208
I5
tp4063
a(I74
I118
tp4064
a(I168
I15
tp4065
a(I107
I2
tp4066
a(I93
I43
tp4067
a(I130
I87
tp4068
a(I46
I83
tp4069
a(I97
I40
tp4070
a(I79
I104
tp4071
a(I173
I147
tp4072
a(I46
I99
tp4073
a(I103
I86
tp4074
a(I73
I7
tp4075
a(I153
I159
tp4076
a(I139
I156
tp4077
a(I55
I0
tp4078
a(I211
I55
tp4079
a(I187
I136
tp4080
a(I45
I106
tp4081
a(I194
I5
tp4082
a(I49
I111
tp4083
a(I68
I157
tp4084
a(I182
I141
tp4085
a(I207
I25
tp4086
a(I206
I7
tp4087
a(I58
I6
tp4088
a(I44
I53
tp4089
a(I172
I2
tp4090
a(I48
I48
tp4091
a(I158
I53
tp4092
a(I196
I136
tp4093
a(I162
I40
tp4094
a(I148
I107
tp4095
a(I209
I3
tp4096
a(I172
I145
tp4097
a(I101
I53
tp4098
a(I138
I1
tp4099
a(I215
I45
tp4100
a(I162
I155
tp4101
a(I54
I149
tp4102
a(I43
I132
tp4103
a(I81
I73
tp4104
a(I209
I156
tp4105
a(I191
I4
tp4106
a(I138
I144
tp4107
a(I211
I31
tp4108
a(I91
I144
tp4109
a(I214
I133
tp4110
a(I43
I21
tp4111
a(I104
I5
tp4112
a(I157
I5
tp4113
a(I170
I144
tp4114
a(I123
I144
tp4115
a(I86
I4
tp4116
a(I52
I156
tp4117
a(I184
I12
tp4118
a(I76
I42
tp4119
a(I42
I86
tp4120
a(I45
I31
tp4121
a(I86
I119
tp4122
a(I89
I145
tp4123
a(I52
I3
tp4124
a(I213
I112
tp4125
a(I206
I132
tp4126
a(I89
I2
tp4127
a(I142
I52
tp4128
a(I203
I6
tp4129
a(I42
I136
tp4130
a(I159
I43
tp4131
a(I85
I54
tp4132
a(I210
I59
tp4133
a(I71
I7
tp4134
a(I155
I40
tp4135
a(I193
I157
tp4136
a(I47
I110
tp4137
a(I88
I117
tp4138
a(I216
I42
tp4139
a(I198
I142
tp4140
a(I49
I134
tp4141
a(I61
I158
tp4142
a(I212
I30
tp4143
a(I210
I20
tp4144
a(I108
I159
tp4145
a(I164
I153
tp4146
a(I131
I80
tp4147
a(I188
I7
tp4148
a(I46
I157
tp4149
a(I212
I141
tp4150
a(I88
I147
tp4151
a(I74
I106
tp4152
a(I93
I158
tp4153
a(I207
I138
tp4154
a(I154
I2
tp4155
a(I46
I12
tp4156
a(I140
I113
tp4157
a(I144
I116
tp4158
a(I93
I15
tp4159
a(I97
I52
tp4160
a(I79
I76
tp4161
a(I46
I127
tp4162
a(I45
I61
tp4163
a(I49
I58
tp4164
a(I159
I53
tp4165
a(I163
I14
tp4166
a(I45
I78
tp4167
a(I102
I1
tp4168
a(I49
I139
tp4169
a(I206
I24
tp4170
a(I163
I159
tp4171
a(I44
I138
tp4172
a(I210
I158
tp4173
a(I48
I77
tp4174
a(I68
I0
tp4175
a(I200
I152
tp4176
a(I92
I158
tp4177
a(I148
I152
tp4178
a(I44
I25
tp4179
a(I195
I159
tp4180
a(I148
I15
tp4181
a(I63
I156
tp4182
a(I101
I41
tp4183
a(I215
I49
tp4184
a(I185
I6
tp4185
a(I124
I13
tp4186
a(I53
I7
tp4187
a(I167
I3
tp4188
a(I80
I107
tp4189
a(I43
I113
tp4190
a(I191
I137
tp4191
a(I143
I42
tp4192
a(I204
I4
tp4193
a(I167
I144
tp4194
a(I133
I0
tp4195
a(I76
I78
tp4196
a(I204
I155
tp4197
a(I42
I74
tp4198
a(I170
I7
tp4199
a(I133
I145
tp4200
a(I86
I147
tp4201
a(I217
I32
tp4202
a(I199
I144
tp4203
a(I99
I4
tp4204
a(I62
I152
tp4205
a(I213
I20
tp4206
a(I165
I145
tp4207
a(I118
I147
tp4208
a(I65
I5
tp4209
a(I47
I157
tp4210
a(I213
I133
tp4211
a(I179
I13
tp4212
a(I145
I109
tp4213
a(I94
I152
tp4214
a(I118
I2
tp4215
a(I155
I52
tp4216
a(I47
I2
tp4217
a(I216
I6
tp4218
a(I94
I43
tp4219
a(I98
I54
tp4220
a(I84
I5
tp4221
a(I212
I50
tp4222
a(I198
I5
tp4223
a(I131
I76
tp4224
a(I84
I116
tp4225
a(I50
I4
tp4226
a(I164
I12
tp4227
a(I150
I107
tp4228
a(I188
I154
tp4229
a(I46
I40
tp4230
a(I50
I151
tp4231
a(I215
I29
tp4232
a(I117
I157
tp4233
a(I103
I158
tp4234
a(I201
I146
tp4235
a(I183
I6
tp4236
a(I45
I33
tp4237
a(I83
I146
tp4238
a(I102
I82
tp4239
a(I49
I38
tp4240
a(I159
I41
tp4241
a(I163
I42
tp4242
a(I96
I7
tp4243
a(I149
I3
tp4244
a(I48
I154
tp4245
a(I139
I53
tp4246
a(I115
I146
tp4247
a(I44
I110
tp4248
a(I210
I130
tp4249
a(I48
I105
tp4250
a(I105
I104
tp4251
a(I115
I3
tp4252
a(I152
I55
tp4253
a(I138
I118
tp4254
a(I158
I13
tp4255
a(I215
I100
tp4256
a(I205
I14
tp4257
a(I81
I0
tp4258
a(I101
I77
tp4259
a(I158
I156
tp4260
a(I205
I159
tp4261
a(I208
I141
tp4262
a(I63
I1
tp4263
a(I87
I159
tp4264
a(I143
I153
tp4265
a(I80
I87
tp4266
a(I43
I93
tp4267
a(I190
I156
tp4268
a(I214
I6
tp4269
a(I143
I14
tp4270
a(I119
I159
tp4271
a(I214
I113
tp4272
a(I180
I1
tp4273
a(I42
I46
tp4274
a(I119
I12
tp4275
a(I217
I60
tp4276
a(I146
I0
tp4277
a(I213
I40
tp4278
a(I199
I5
tp4279
a(I146
I147
tp4280
a(I169
I50
tp4281
a(I213
I153
tp4282
a(I216
I115
tp4283
a(I142
I159
tp4284
a(I112
I4
tp4285
a(I165
I6
tp4286
a(I94
I116
tp4287
a(I98
I107
tp4288
a(I47
I38
tp4289
a(I178
I147
tp4290
a(I208
I30
tp4291
a(I112
I147
tp4292
a(I94
I7
tp4293
a(I141
I110
tp4294
a(I144
I158
tp4295
a(I74
I83
tp4296
a(I211
I123
tp4297
a(I97
I146
tp4298
a(I60
I2
tp4299
a(I192
I138
tp4300
a(I174
I14
tp4301
a(I144
I45
tp4302
a(I73
I153
tp4303
a(I97
I3
tp4304
a(I150
I119
tp4305
a(I46
I68
tp4306
a(I93
I119
tp4307
a(I121
I156
tp4308
a(I79
I4
tp4309
a(I177
I4
tp4310
a(I201
I142
tp4311
a(I130
I146
tp4312
a(I45
I5
tp4313
a(I49
I66
tp4314
a(I159
I13
tp4315
a(I183
I155
tp4316
a(I45
I150
tp4317
a(I48
I134
tp4318
a(I196
I6
tp4319
a(I159
I146
tp4320
a(I96
I146
tp4321
a(I44
I82
tp4322
a(I48
I21
tp4323
a(I215
I155
tp4324
a(I162
I5
tp4325
a(I128
I157
tp4326
a(I138
I106
tp4327
a(I158
I105
tp4328
a(I162
I116
tp4329
a(I91
I6
tp4330
a(I128
I12
tp4331
a(I114
I157
tp4332
a(I43
I155
tp4333
a(I110
I145
tp4334
a(I57
I11
tp4335
a(I205
I131
tp4336
a(I43
I40
tp4337
a(I104
I42
tp4338
a(I110
I0
tp4339
a(I137
I12
tp4340
a(I210
I119
tp4341
a(I214
I34
tp4342
a(I76
I7
tp4343
a(I42
I115
tp4344
a(I137
I157
tp4345
a(I86
I104
tp4346
a(I113
I14
tp4347
a(I42
I2
tp4348
a(I66
I156
tp4349
a(I45
I17
tp4350
a(I217
I24
tp4351
a(I210
I137
tp4352
a(I75
I86
tp4353
a(I113
I159
tp4354
a(I169
I157
tp4355
a(I42
I149
tp4356
a(I193
I7
tp4357
a(I89
I86
tp4358
a(I217
I137
tp4359
a(I169
I46
tp4360
a(I98
I156
tp4361
a(I207
I143
tp4362
a(I47
I85
tp4363
a(I175
I0
tp4364
a(I210
I45
tp4365
a(I145
I53
tp4366
a(I98
I15
tp4367
a(I47
I58
tp4368
a(I141
I1
tp4369
a(I151
I104
tp4370
a(I46
I134
tp4371
a(I212
I106
tp4372
a(I178
I6
tp4373
a(I141
I146
tp4374
a(I74
I119
tp4375
a(I139
I14
tp4376
a(I107
I5
tp4377
a(I93
I42
tp4378
a(I130
I84
tp4379
a(I168
I159
tp4380
a(I79
I107
tp4381
a(I173
I146
tp4382
a(I46
I96
tp4383
a(I103
I81
tp4384
a(I73
I6
tp4385
a(I153
I158
tp4386
a(I49
I29
tp4387
a(I55
I3
tp4388
a(I187
I139
tp4389
a(I153
I15
tp4390
a(I45
I105
tp4391
a(I49
I110
tp4392
a(I68
I158
tp4393
a(I92
I4
tp4394
a(I206
I4
tp4395
a(I58
I7
tp4396
a(I44
I54
tp4397
a(I172
I3
tp4398
a(I48
I49
tp4399
a(I196
I137
tp4400
a(I162
I41
tp4401
a(I148
I116
tp4402
a(I209
I2
tp4403
a(I172
I146
tp4404
a(I101
I52
tp4405
a(I138
I14
tp4406
a(I215
I44
tp4407
a(I162
I152
tp4408
a(I43
I135
tp4409
a(I81
I72
tp4410
a(I209
I147
tp4411
a(I191
I7
tp4412
a(I138
I145
tp4413
a(I157
I147
tp4414
a(I91
I147
tp4415
a(I43
I20
tp4416
a(I104
I6
tp4417
a(I67
I154
tp4418
a(I170
I145
tp4419
a(I123
I147
tp4420
a(I86
I5
tp4421
a(I215
I135
tp4422
a(I52
I157
tp4423
a(I184
I13
tp4424
a(I76
I43
tp4425
a(I42
I87
tp4426
a(I136
I144
tp4427
a(I123
I0
tp4428
a(I86
I116
tp4429
a(I89
I144
tp4430
a(I202
I136
tp4431
a(I213
I127
tp4432
a(I89
I1
tp4433
a(I142
I53
tp4434
a(I42
I137
tp4435
a(I85
I53
tp4436
a(I195
I132
tp4437
a(I71
I6
tp4438
a(I155
I43
tp4439
a(I193
I156
tp4440
a(I47
I105
tp4441
a(I88
I118
tp4442
a(I216
I43
tp4443
a(I198
I143
tp4444
a(I61
I157
tp4445
a(I212
I31
tp4446
a(I108
I152
tp4447
a(I164
I154
tp4448
a(I131
I83
tp4449
a(I188
I0
tp4450
a(I212
I142
tp4451
a(I74
I107
tp4452
a(I93
I157
tp4453
a(I154
I3
tp4454
a(I46
I13
tp4455
a(I140
I114
tp4456
a(I144
I117
tp4457
a(I93
I14
tp4458
a(I97
I75
tp4459
a(I79
I79
tp4460
a(I46
I124
tp4461
a(I103
I117
tp4462
a(I215
I19
tp4463
a(I45
I60
tp4464
a(I173
I7
tp4465
a(I49
I57
tp4466
a(I159
I52
tp4467
a(I163
I49
tp4468
a(I45
I77
tp4469
a(I102
I6
tp4470
a(I49
I138
tp4471
a(I163
I158
tp4472
a(I44
I139
tp4473
a(I210
I159
tp4474
a(I48
I78
tp4475
a(I68
I1
tp4476
a(I200
I153
tp4477
a(I92
I159
tp4478
a(I148
I153
tp4479
a(I44
I26
tp4480
a(I195
I158
tp4481
a(I63
I159
tp4482
a(I101
I40
tp4483
a(I87
I5
tp4484
a(I215
I48
tp4485
a(I206
I134
tp4486
a(I185
I5
tp4487
a(I157
I119
tp4488
a(I124
I14
tp4489
a(I53
I6
tp4490
a(I167
I2
tp4491
a(I43
I112
tp4492
a(I203
I30
tp4493
a(I191
I136
tp4494
a(I181
I16
tp4495
a(I143
I53
tp4496
a(I204
I5
tp4497
a(I167
I147
tp4498
a(I133
I15
tp4499
a(I214
I106
tp4500
a(I76
I79
tp4501
a(I42
I75
tp4502
a(I170
I4
tp4503
a(I133
I144
tp4504
a(I86
I144
tp4505
a(I217
I39
tp4506
a(I199
I147
tp4507
a(I184
I152
tp4508
a(I99
I7
tp4509
a(I62
I153
tp4510
a(I213
I19
tp4511
a(I165
I144
tp4512
a(I118
I144
tp4513
a(I65
I4
tp4514
a(I47
I156
tp4515
a(I213
I132
tp4516
a(I157
I7
tp4517
a(I179
I12
tp4518
a(I145
I108
tp4519
a(I94
I153
tp4520
a(I131
I145
tp4521
a(I118
I3
tp4522
a(I155
I55
tp4523
a(I47
I13
tp4524
a(I216
I7
tp4525
a(I94
I40
tp4526
a(I98
I55
tp4527
a(I84
I6
tp4528
a(I212
I51
tp4529
a(I208
I12
tp4530
a(I131
I79
tp4531
a(I84
I117
tp4532
a(I50
I5
tp4533
a(I164
I13
tp4534
a(I150
I104
tp4535
a(I188
I155
tp4536
a(I46
I41
tp4537
a(I50
I148
tp4538
a(I97
I87
tp4539
a(I117
I156
tp4540
a(I214
I22
tp4541
a(I103
I153
tp4542
a(I201
I145
tp4543
a(I183
I1
tp4544
a(I211
I44
tp4545
a(I45
I32
tp4546
a(I194
I12
tp4547
a(I102
I83
tp4548
a(I49
I37
tp4549
a(I159
I40
tp4550
a(I163
I45
tp4551
a(I149
I2
tp4552
a(I48
I155
tp4553
a(I139
I52
tp4554
a(I44
I111
tp4555
a(I210
I131
tp4556
a(I48
I106
tp4557
a(I115
I2
tp4558
a(I138
I119
tp4559
a(I215
I103
tp4560
a(I205
I13
tp4561
a(I81
I7
tp4562
a(I101
I76
tp4563
a(I158
I157
tp4564
a(I87
I41
tp4565
a(I205
I158
tp4566
a(I208
I142
tp4567
a(I134
I154
tp4568
a(I63
I0
tp4569
a(I87
I158
tp4570
a(I143
I152
tp4571
a(I80
I72
tp4572
a(I43
I92
tp4573
a(I190
I157
tp4574
a(I210
I2
tp4575
a(I214
I7
tp4576
a(I119
I158
tp4577
a(I66
I6
tp4578
a(I210
I105
tp4579
a(I214
I118
tp4580
a(I180
I2
tp4581
a(I42
I47
tp4582
a(I42
I30
tp4583
a(I119
I15
tp4584
a(I217
I3
tp4585
a(I146
I1
tp4586
a(I213
I55
tp4587
a(I217
I41
tp4588
a(I199
I4
tp4589
a(I146
I144
tp4590
a(I169
I49
tp4591
a(I213
I152
tp4592
a(I216
I116
tp4593
a(I142
I156
tp4594
a(I112
I5
tp4595
a(I165
I5
tp4596
a(I94
I117
tp4597
a(I98
I104
tp4598
a(I47
I33
tp4599
a(I178
I144
tp4600
a(I179
I153
tp4601
a(I202
I26
tp4602
a(I94
I4
tp4603
a(I141
I109
tp4604
a(I144
I159
tp4605
a(I74
I80
tp4606
a(I189
I147
tp4607
a(I97
I145
tp4608
a(I60
I3
tp4609
a(I192
I139
tp4610
a(I211
I153
tp4611
a(I174
I15
tp4612
a(I144
I46
tp4613
a(I73
I152
tp4614
a(I217
I119
tp4615
a(I97
I2
tp4616
a(I150
I116
tp4617
a(I46
I69
tp4618
a(I93
I118
tp4619
a(I79
I7
tp4620
a(I201
I141
tp4621
a(I130
I147
tp4622
a(I45
I4
tp4623
a(I49
I65
tp4624
a(I159
I12
tp4625
a(I183
I154
tp4626
a(I45
I149
tp4627
a(I48
I135
tp4628
a(I196
I7
tp4629
a(I159
I157
tp4630
a(I96
I147
tp4631
a(I44
I83
tp4632
a(I48
I22
tp4633
a(I105
I75
tp4634
a(I215
I154
tp4635
a(I162
I2
tp4636
a(I128
I158
tp4637
a(I189
I4
tp4638
a(I138
I107
tp4639
a(I210
I139
tp4640
a(I162
I117
tp4641
a(I128
I13
tp4642
a(I114
I154
tp4643
a(I43
I154
tp4644
a(I57
I10
tp4645
a(I167
I117
tp4646
a(I205
I130
tp4647
a(I43
I43
tp4648
a(I216
I158
tp4649
a(I104
I43
tp4650
a(I209
I15
tp4651
a(I110
I1
tp4652
a(I80
I52
tp4653
a(I47
I65
tp4654
a(I214
I35
tp4655
a(I143
I109
tp4656
a(I76
I0
tp4657
a(I42
I112
tp4658
a(I137
I156
tp4659
a(I86
I105
tp4660
a(I113
I13
tp4661
a(I42
I3
tp4662
a(I66
I157
tp4663
a(I217
I31
tp4664
a(I75
I73
tp4665
a(I113
I158
tp4666
a(I169
I156
tp4667
a(I42
I146
tp4668
a(I193
I6
tp4669
a(I89
I85
tp4670
a(I217
I136
tp4671
a(I145
I155
tp4672
a(I198
I136
tp4673
a(I169
I45
tp4674
a(I98
I157
tp4675
a(I61
I7
tp4676
a(I47
I84
tp4677
a(I175
I3
tp4678
a(I145
I52
tp4679
a(I98
I12
tp4680
a(I212
I4
tp4681
a(I141
I0
tp4682
a(I215
I111
tp4683
a(I151
I107
tp4684
a(I46
I135
tp4685
a(I212
I107
tp4686
a(I178
I7
tp4687
a(I141
I145
tp4688
a(I74
I116
tp4689
a(I107
I4
tp4690
a(I93
I41
tp4691
a(I130
I85
tp4692
a(I79
I106
tp4693
a(I173
I145
tp4694
a(I46
I97
tp4695
a(I174
I154
tp4696
a(I103
I80
tp4697
a(I197
I27
tp4698
a(I73
I5
tp4699
a(I153
I157
tp4700
a(I49
I28
tp4701
a(I126
I2
tp4702
a(I55
I2
tp4703
a(I198
I27
tp4704
a(I187
I138
tp4705
a(I206
I154
tp4706
a(I153
I14
tp4707
a(I45
I104
tp4708
a(I49
I109
tp4709
a(I68
I159
tp4710
a(I92
I5
tp4711
a(I206
I5
tp4712
a(I58
I4
tp4713
a(I44
I55
tp4714
a(I48
I50
tp4715
a(I196
I138
tp4716
a(I148
I117
tp4717
a(I209
I1
tp4718
a(I172
I147
tp4719
a(I138
I15
tp4720
a(I215
I47
tp4721
a(I162
I153
tp4722
a(I43
I134
tp4723
a(I81
I79
tp4724
a(I209
I146
tp4725
a(I191
I6
tp4726
a(I138
I158
tp4727
a(I157
I146
tp4728
a(I91
I146
tp4729
a(I43
I23
tp4730
a(I100
I76
tp4731
a(I104
I7
tp4732
a(I67
I157
tp4733
a(I57
I151
tp4734
a(I170
I158
tp4735
a(I123
I146
tp4736
a(I160
I152
tp4737
a(I52
I158
tp4738
a(I184
I14
tp4739
a(I42
I84
tp4740
a(I136
I145
tp4741
a(I123
I3
tp4742
a(I86
I117
tp4743
a(I146
I54
tp4744
a(I213
I126
tp4745
a(I89
I0
tp4746
a(I217
I123
tp4747
a(I75
I117
tp4748
a(I85
I52
tp4749
a(I71
I1
tp4750
a(I155
I42
tp4751
a(I193
I147
tp4752
a(I47
I104
tp4753
a(I88
I119
tp4754
a(I216
I44
tp4755
a(I198
I140
tp4756
a(I61
I156
tp4757
a(I212
I24
tp4758
a(I108
I153
tp4759
a(I164
I155
tp4760
a(I211
I112
tp4761
a(I131
I82
tp4762
a(I188
I1
tp4763
a(I212
I143
tp4764
a(I140
I156
tp4765
a(I74
I104
tp4766
a(I93
I156
tp4767
a(I202
I30
tp4768
a(I154
I0
tp4769
a(I46
I18
tp4770
a(I140
I115
tp4771
a(I144
I118
tp4772
a(I93
I13
tp4773
a(I211
I23
tp4774
a(I97
I74
tp4775
a(I79
I78
tp4776
a(I207
I5
tp4777
a(I46
I125
tp4778
a(I103
I116
tp4779
a(I120
I4
tp4780
a(I173
I6
tp4781
a(I49
I56
tp4782
a(I194
I157
tp4783
a(I159
I55
tp4784
a(I163
I48
tp4785
a(I211
I58
tp4786
a(I45
I76
tp4787
a(I102
I7
tp4788
a(I49
I137
tp4789
a(I44
I132
tp4790
a(I210
I156
tp4791
a(I48
I79
tp4792
a(I68
I2
tp4793
a(I200
I154
tp4794
a(I92
I152
tp4795
a(I148
I154
tp4796
a(I44
I27
tp4797
a(I105
I3
tp4798
a(I210
I127
tp4799
a(I185
I155
tp4800
a(I63
I158
tp4801
a(I101
I87
tp4802
a(I87
I4
tp4803
a(I215
I51
tp4804
a(I185
I4
tp4805
a(I157
I118
tp4806
a(I124
I15
tp4807
a(I53
I5
tp4808
a(I43
I115
tp4809
a(I191
I139
tp4810
a(I45
I63
tp4811
a(I143
I52
tp4812
a(I204
I6
tp4813
a(I167
I146
tp4814
a(I133
I14
tp4815
a(I137
I75
tp4816
a(I214
I107
tp4817
a(I215
I130
tp4818
a(I76
I72
tp4819
a(I42
I72
tp4820
a(I170
I5
tp4821
a(I133
I159
tp4822
a(I203
I142
tp4823
a(I135
I152
tp4824
a(I86
I145
tp4825
a(I217
I38
tp4826
a(I199
I146
tp4827
a(I184
I153
tp4828
a(I99
I6
tp4829
a(I62
I158
tp4830
a(I213
I18
tp4831
a(I206
I137
tp4832
a(I165
I159
tp4833
a(I118
I145
tp4834
a(I47
I159
tp4835
a(I210
I52
tp4836
a(I216
I153
tp4837
a(I179
I15
tp4838
a(I94
I158
tp4839
a(I131
I144
tp4840
a(I118
I0
tp4841
a(I155
I54
tp4842
a(I84
I144
tp4843
a(I47
I12
tp4844
a(I94
I41
tp4845
a(I98
I52
tp4846
a(I84
I7
tp4847
a(I212
I60
tp4848
a(I210
I17
tp4849
a(I131
I78
tp4850
a(I84
I118
tp4851
a(I50
I2
tp4852
a(I164
I14
tp4853
a(I150
I105
tp4854
a(I46
I46
tp4855
a(I50
I149
tp4856
a(I97
I86
tp4857
a(I117
I155
tp4858
a(I103
I152
tp4859
a(I201
I144
tp4860
a(I183
I0
tp4861
a(I135
I157
tp4862
a(I102
I80
tp4863
a(I49
I36
tp4864
a(I45
I134
tp4865
a(I163
I44
tp4866
a(I149
I1
tp4867
a(I48
I156
tp4868
a(I139
I55
tp4869
a(I206
I29
tp4870
a(I186
I6
tp4871
a(I44
I104
tp4872
a(I210
I128
tp4873
a(I48
I107
tp4874
a(I115
I5
tp4875
a(I138
I116
tp4876
a(I215
I102
tp4877
a(I162
I110
tp4878
a(I205
I12
tp4879
a(I81
I6
tp4880
a(I101
I75
tp4881
a(I87
I40
tp4882
a(I205
I157
tp4883
a(I208
I143
tp4884
a(I134
I155
tp4885
a(I63
I3
tp4886
a(I87
I153
tp4887
a(I143
I155
tp4888
a(I80
I73
tp4889
a(I43
I95
tp4890
a(I100
I4
tp4891
a(I214
I4
tp4892
a(I119
I153
tp4893
a(I66
I7
tp4894
a(I214
I119
tp4895
a(I180
I3
tp4896
a(I202
I131
tp4897
a(I42
I44
tp4898
a(I119
I14
tp4899
a(I156
I52
tp4900
a(I211
I107
tp4901
a(I217
I2
tp4902
a(I213
I54
tp4903
a(I199
I7
tp4904
a(I146
I145
tp4905
a(I169
I48
tp4906
a(I211
I98
tp4907
a(I216
I117
tp4908
a(I142
I157
tp4909
a(I112
I6
tp4910
a(I165
I4
tp4911
a(I98
I105
tp4912
a(I47
I32
tp4913
a(I178
I145
tp4914
a(I179
I152
tp4915
a(I202
I27
tp4916
a(I94
I5
tp4917
a(I209
I22
tp4918
a(I141
I108
tp4919
a(I144
I144
tp4920
a(I74
I81
tp4921
a(I97
I144
tp4922
a(I192
I140
tp4923
a(I211
I152
tp4924
a(I174
I12
tp4925
a(I144
I47
tp4926
a(I73
I159
tp4927
a(I130
I78
tp4928
a(I97
I1
tp4929
a(I150
I117
tp4930
a(I46
I74
tp4931
a(I215
I24
tp4932
a(I93
I117
tp4933
a(I79
I6
tp4934
a(I201
I140
tp4935
a(I130
I144
tp4936
a(I45
I3
tp4937
a(I49
I64
tp4938
a(I159
I15
tp4939
a(I198
I21
tp4940
a(I45
I148
tp4941
a(I196
I0
tp4942
a(I159
I156
tp4943
a(I44
I76
tp4944
a(I48
I23
tp4945
a(I141
I117
tp4946
a(I105
I74
tp4947
a(I162
I3
tp4948
a(I128
I159
tp4949
a(I138
I104
tp4950
a(I157
I159
tp4951
a(I162
I114
tp4952
a(I128
I14
tp4953
a(I114
I155
tp4954
a(I43
I157
tp4955
a(I181
I7
tp4956
a(I57
I9
tp4957
a(I167
I116
tp4958
a(I205
I129
tp4959
a(I43
I42
tp4960
a(I110
I6
tp4961
a(I80
I53
tp4962
a(I214
I32
tp4963
a(I143
I108
tp4964
a(I147
I105
tp4965
a(I76
I1
tp4966
a(I42
I113
tp4967
a(I210
I28
tp4968
a(I113
I12
tp4969
a(I42
I0
tp4970
a(I66
I154
tp4971
a(I89
I43
tp4972
a(I217
I30
tp4973
a(I75
I72
tp4974
a(I113
I157
tp4975
a(I95
I5
tp4976
a(I42
I147
tp4977
a(I193
I5
tp4978
a(I89
I84
tp4979
a(I217
I143
tp4980
a(I145
I154
tp4981
a(I169
I44
tp4982
a(I98
I154
tp4983
a(I61
I6
tp4984
a(I47
I87
tp4985
a(I175
I2
tp4986
a(I145
I43
tp4987
a(I94
I86
tp4988
a(I98
I13
tp4989
a(I212
I5
tp4990
a(I208
I19
tp4991
a(I151
I106
tp4992
a(I46
I132
tp4993
a(I212
I116
tp4994
a(I178
I4
tp4995
a(I141
I144
tp4996
a(I74
I117
tp4997
a(I211
I126
tp4998
a(I107
I7
tp4999
a(I93
I40
tp5000
a(I130
I82
tp5001
a(I79
I117
tp5002
a(I214
I25
tp5003
a(I173
I144
tp5004
a(I46
I102
tp5005
a(I174
I155
tp5006
a(I103
I83
tp5007
a(I197
I26
tp5008
a(I73
I4
tp5009
a(I211
I37
tp5010
a(I153
I156
tp5011
a(I49
I19
tp5012
a(I126
I3
tp5013
a(I187
I141
tp5014
a(I206
I155
tp5015
a(I153
I13
tp5016
a(I45
I103
tp5017
a(I49
I108
tp5018
a(I68
I152
tp5019
a(I200
I16
tp5020
a(I92
I6
tp5021
a(I58
I5
tp5022
a(I44
I48
tp5023
a(I48
I51
tp5024
a(I190
I22
tp5025
a(I196
I139
tp5026
a(I148
I118
tp5027
a(I209
I0
tp5028
a(I138
I12
tp5029
a(I215
I46
tp5030
a(I81
I78
tp5031
a(I209
I145
tp5032
a(I191
I1
tp5033
a(I138
I159
tp5034
a(I157
I145
tp5035
a(I114
I14
tp5036
a(I43
I22
tp5037
a(I100
I77
tp5038
a(I139
I145
tp5039
a(I157
I2
tp5040
a(I57
I150
tp5041
a(I170
I159
tp5042
a(I45
I49
tp5043
a(I160
I153
tp5044
a(I52
I159
tp5045
a(I184
I15
tp5046
a(I42
I85
tp5047
a(I136
I146
tp5048
a(I123
I2
tp5049
a(I146
I55
tp5050
a(I217
I52
tp5051
a(I166
I50
tp5052
a(I213
I125
tp5053
a(I89
I7
tp5054
a(I217
I122
tp5055
a(I75
I116
tp5056
a(I71
I0
tp5057
a(I211
I27
tp5058
a(I193
I146
tp5059
a(I47
I107
tp5060
a(I210
I38
tp5061
a(I216
I45
tp5062
a(I198
I141
tp5063
a(I61
I155
tp5064
a(I212
I25
tp5065
a(I108
I154
tp5066
a(I74
I6
tp5067
a(I189
I156
tp5068
a(I131
I85
tp5069
a(I188
I2
tp5070
a(I212
I136
tp5071
a(I140
I157
tp5072
a(I210
I3
tp5073
a(I217
I104
tp5074
a(I74
I105
tp5075
a(I93
I155
tp5076
a(I211
I30
tp5077
a(I154
I1
tp5078
a(I46
I19
tp5079
a(I140
I108
tp5080
a(I144
I119
tp5081
a(I93
I12
tp5082
a(I97
I73
tp5083
a(I79
I73
tp5084
a(I207
I4
tp5085
a(I103
I119
tp5086
a(I45
I58
tp5087
a(I132
I7
tp5088
a(I49
I63
tp5089
a(I159
I54
tp5090
a(I197
I143
tp5091
a(I163
I51
tp5092
a(I45
I75
tp5093
a(I102
I4
tp5094
a(I49
I136
tp5095
a(I200
I12
tp5096
a(I44
I133
tp5097
a(I210
I157
tp5098
a(I48
I64
tp5099
a(I68
I3
tp5100
a(I200
I155
tp5101
a(I92
I153
tp5102
a(I148
I155
tp5103
a(I189
I13
tp5104
a(I44
I20
tp5105
a(I105
I2
tp5106
a(I210
I146
tp5107
a(I186
I21
tp5108
a(I185
I154
tp5109
a(I63
I153
tp5110
a(I101
I86
tp5111
a(I105
I147
tp5112
a(I87
I7
tp5113
a(I215
I50
tp5114
a(I157
I117
tp5115
a(I214
I142
tp5116
a(I53
I4
tp5117
a(I43
I114
tp5118
a(I191
I138
tp5119
a(I143
I55
tp5120
a(I204
I7
tp5121
a(I133
I13
tp5122
a(I137
I74
tp5123
a(I214
I104
tp5124
a(I76
I73
tp5125
a(I42
I73
tp5126
a(I170
I2
tp5127
a(I133
I158
tp5128
a(I217
I37
tp5129
a(I109
I15
tp5130
a(I184
I154
tp5131
a(I62
I159
tp5132
a(I213
I17
tp5133
a(I165
I158
tp5134
a(I47
I158
tp5135
a(I213
I130
tp5136
a(I216
I154
tp5137
a(I179
I14
tp5138
a(I165
I111
tp5139
a(I94
I159
tp5140
a(I131
I147
tp5141
a(I118
I1
tp5142
a(I84
I145
tp5143
a(I47
I15
tp5144
a(I88
I84
tp5145
a(I98
I53
tp5146
a(I84
I0
tp5147
a(I212
I61
tp5148
a(I84
I119
tp5149
a(I50
I3
tp5150
a(I207
I130
tp5151
a(I164
I15
tp5152
a(I181
I143
tp5153
a(I46
I47
tp5154
a(I97
I85
tp5155
a(I117
I154
tp5156
a(I103
I155
tp5157
a(I69
I7
tp5158
a(I183
I3
tp5159
a(I82
I146
tp5160
a(I135
I156
tp5161
a(I102
I81
tp5162
a(I49
I91
tp5163
a(I159
I42
tp5164
a(I163
I47
tp5165
a(I149
I0
tp5166
a(I120
I144
tp5167
a(I48
I157
tp5168
a(I139
I54
tp5169
a(I186
I7
tp5170
a(I44
I105
tp5171
a(I210
I129
tp5172
a(I48
I108
tp5173
a(I115
I4
tp5174
a(I138
I117
tp5175
a(I215
I97
tp5176
a(I162
I111
tp5177
a(I81
I5
tp5178
a(I101
I74
tp5179
a(I195
I13
tp5180
a(I87
I43
tp5181
a(I205
I156
tp5182
a(I208
I128
tp5183
a(I134
I152
tp5184
a(I63
I2
tp5185
a(I87
I152
tp5186
a(I143
I154
tp5187
a(I80
I74
tp5188
a(I43
I94
tp5189
a(I100
I5
tp5190
a(I214
I5
tp5191
a(I214
I135
tp5192
a(I190
I18
tp5193
a(I119
I152
tp5194
a(I66
I4
tp5195
a(I214
I116
tp5196
a(I180
I12
tp5197
a(I42
I45
tp5198
a(I156
I53
tp5199
a(I217
I1
tp5200
a(I207
I129
tp5201
a(I213
I53
tp5202
a(I199
I6
tp5203
a(I169
I55
tp5204
a(I67
I156
tp5205
a(I112
I7
tp5206
a(I165
I3
tp5207
a(I199
I24
tp5208
a(I47
I35
tp5209
a(I178
I142
tp5210
a(I179
I155
tp5211
a(I202
I24
tp5212
a(I211
I105
tp5213
a(I141
I107
tp5214
a(I144
I145
tp5215
a(I208
I1
tp5216
a(I192
I141
tp5217
a(I211
I155
tp5218
a(I174
I13
tp5219
a(I73
I158
tp5220
a(I130
I79
tp5221
a(I211
I12
tp5222
a(I97
I0
tp5223
a(I83
I85
tp5224
a(I46
I75
tp5225
a(I140
I52
tp5226
a(I217
I111
tp5227
a(I93
I116
tp5228
a(I79
I1
tp5229
a(I130
I145
tp5230
a(I211
I51
tp5231
a(I82
I118
tp5232
a(I45
I2
tp5233
a(I49
I71
tp5234
a(I159
I14
tp5235
a(I207
I29
tp5236
a(I45
I147
tp5237
a(I196
I1
tp5238
a(I159
I159
tp5239
a(I214
I23
tp5240
a(I44
I77
tp5241
a(I48
I8
tp5242
a(I105
I73
tp5243
a(I196
I144
tp5244
a(I162
I0
tp5245
a(I128
I144
tp5246
a(I209
I27
tp5247
a(I138
I105
tp5248
a(I215
I5
tp5249
a(I162
I115
tp5250
a(I128
I15
tp5251
a(I114
I152
tp5252
a(I43
I156
tp5253
a(I181
I6
tp5254
a(I57
I8
tp5255
a(I167
I119
tp5256
a(I205
I128
tp5257
a(I43
I45
tp5258
a(I110
I7
tp5259
a(I80
I54
tp5260
a(I214
I33
tp5261
a(I143
I111
tp5262
a(I147
I104
tp5263
a(I76
I2
tp5264
a(I42
I126
tp5265
a(I190
I14
tp5266
a(I210
I98
tp5267
a(I113
I3
tp5268
a(I42
I1
tp5269
a(I132
I153
tp5270
a(I211
I125
tp5271
a(I66
I155
tp5272
a(I206
I128
tp5273
a(I89
I42
tp5274
a(I217
I29
tp5275
a(I75
I75
tp5276
a(I113
I156
tp5277
a(I95
I4
tp5278
a(I42
I144
tp5279
a(I193
I4
tp5280
a(I210
I63
tp5281
a(I217
I142
tp5282
a(I145
I153
tp5283
a(I98
I155
tp5284
a(I61
I5
tp5285
a(I199
I132
tp5286
a(I47
I86
tp5287
a(I175
I13
tp5288
a(I145
I42
tp5289
a(I135
I1
tp5290
a(I94
I87
tp5291
a(I212
I6
tp5292
a(I88
I12
tp5293
a(I186
I139
tp5294
a(I46
I133
tp5295
a(I212
I117
tp5296
a(I178
I5
tp5297
a(I189
I5
tp5298
a(I154
I42
tp5299
a(I107
I6
tp5300
a(I144
I12
tp5301
a(I130
I83
tp5302
a(I79
I116
tp5303
a(I46
I103
tp5304
a(I174
I152
tp5305
a(I103
I82
tp5306
a(I197
I25
tp5307
a(I49
I18
tp5308
a(I135
I13
tp5309
a(I126
I0
tp5310
a(I187
I140
tp5311
a(I206
I152
tp5312
a(I153
I12
tp5313
a(I45
I102
tp5314
a(I49
I99
tp5315
a(I68
I153
tp5316
a(I206
I20
tp5317
a(I200
I17
tp5318
a(I92
I7
tp5319
a(I58
I2
tp5320
a(I115
I144
tp5321
a(I44
I49
tp5322
a(I48
I52
tp5323
a(I148
I119
tp5324
a(I209
I7
tp5325
a(I138
I13
tp5326
a(I215
I41
tp5327
a(I81
I77
tp5328
a(I209
I144
tp5329
a(I191
I0
tp5330
a(I138
I156
tp5331
a(I157
I144
tp5332
a(I114
I15
tp5333
a(I43
I9
tp5334
a(I100
I78
tp5335
a(I191
I145
tp5336
a(I157
I1
tp5337
a(I57
I149
tp5338
a(I204
I28
tp5339
a(I170
I156
tp5340
a(I122
I15
tp5341
a(I104
I152
tp5342
a(I160
I154
tp5343
a(I52
I152
tp5344
a(I184
I16
tp5345
a(I42
I82
tp5346
a(I136
I147
tp5347
a(I123
I5
tp5348
a(I146
I52
tp5349
a(I166
I51
tp5350
a(I213
I124
tp5351
a(I89
I6
tp5352
a(I217
I121
tp5353
a(I75
I119
tp5354
a(I47
I133
tp5355
a(I71
I3
tp5356
a(I169
I15
tp5357
a(I193
I145
tp5358
a(I47
I106
tp5359
a(I216
I46
tp5360
a(I108
I4
tp5361
a(I61
I154
tp5362
a(I212
I26
tp5363
a(I108
I155
tp5364
a(I74
I7
tp5365
a(I131
I84
tp5366
a(I188
I3
tp5367
a(I212
I137
tp5368
a(I140
I158
tp5369
a(I93
I154
tp5370
a(I154
I14
tp5371
a(I46
I16
tp5372
a(I140
I109
tp5373
a(I144
I104
tp5374
a(I97
I72
tp5375
a(I79
I72
tp5376
a(I207
I7
tp5377
a(I83
I13
tp5378
a(I103
I118
tp5379
a(I203
I16
tp5380
a(I120
I6
tp5381
a(I173
I4
tp5382
a(I49
I62
tp5383
a(I197
I142
tp5384
a(I163
I50
tp5385
a(I92
I116
tp5386
a(I45
I74
tp5387
a(I102
I5
tp5388
a(I139
I13
tp5389
a(I200
I13
tp5390
a(I44
I134
tp5391
a(I210
I154
tp5392
a(I48
I65
tp5393
a(I200
I156
tp5394
a(I92
I154
tp5395
a(I44
I21
tp5396
a(I105
I1
tp5397
a(I185
I153
tp5398
a(I63
I152
tp5399
a(I101
I85
tp5400
a(I105
I146
tp5401
a(I87
I6
tp5402
a(I157
I116
tp5403
a(I214
I143
tp5404
a(I53
I3
tp5405
a(I43
I117
tp5406
a(I143
I54
tp5407
a(I211
I134
tp5408
a(I204
I0
tp5409
a(I133
I12
tp5410
a(I137
I73
tp5411
a(I214
I105
tp5412
a(I76
I74
tp5413
a(I42
I54
tp5414
a(I170
I3
tp5415
a(I133
I157
tp5416
a(I217
I36
tp5417
a(I109
I14
tp5418
a(I184
I155
tp5419
a(I62
I156
tp5420
a(I213
I16
tp5421
a(I109
I159
tp5422
a(I165
I157
tp5423
a(I99
I153
tp5424
a(I47
I153
tp5425
a(I213
I129
tp5426
a(I216
I155
tp5427
a(I179
I17
tp5428
a(I202
I146
tp5429
a(I165
I110
tp5430
a(I94
I156
tp5431
a(I131
I146
tp5432
a(I169
I107
tp5433
a(I118
I6
tp5434
a(I84
I146
tp5435
a(I47
I14
tp5436
a(I88
I85
tp5437
a(I208
I26
tp5438
a(I84
I1
tp5439
a(I212
I62
tp5440
a(I168
I152
tp5441
a(I211
I119
tp5442
a(I50
I0
tp5443
a(I46
I44
tp5444
a(I103
I5
tp5445
a(I121
I152
tp5446
a(I97
I84
tp5447
a(I117
I153
tp5448
a(I83
I41
tp5449
a(I103
I154
tp5450
a(I69
I6
tp5451
a(I203
I17
tp5452
a(I183
I2
tp5453
a(I82
I147
tp5454
a(I45
I29
tp5455
a(I102
I86
tp5456
a(I49
I90
tp5457
a(I163
I46
tp5458
a(I149
I15
tp5459
a(I120
I145
tp5460
a(I48
I158
tp5461
a(I139
I41
tp5462
a(I186
I4
tp5463
a(I44
I106
tp5464
a(I48
I109
tp5465
a(I115
I7
tp5466
a(I138
I114
tp5467
a(I215
I96
tp5468
a(I162
I108
tp5469
a(I81
I4
tp5470
a(I134
I14
tp5471
a(I101
I73
tp5472
a(I195
I12
tp5473
a(I87
I42
tp5474
a(I205
I155
tp5475
a(I208
I129
tp5476
a(I134
I153
tp5477
a(I87
I155
tp5478
a(I211
I128
tp5479
a(I80
I75
tp5480
a(I43
I81
tp5481
a(I100
I6
tp5482
a(I120
I5
tp5483
a(I124
I156
tp5484
a(I173
I5
tp5485
a(I190
I19
tp5486
a(I119
I155
tp5487
a(I66
I5
tp5488
a(I214
I117
tp5489
a(I180
I13
tp5490
a(I42
I42
tp5491
a(I203
I133
tp5492
a(I156
I54
tp5493
a(I217
I0
tp5494
a(I213
I52
tp5495
a(I199
I1
tp5496
a(I169
I54
tp5497
a(I210
I49
tp5498
a(I216
I119
tp5499
a(I165
I2
tp5500
a(I47
I34
tp5501
a(I178
I143
tp5502
a(I179
I154
tp5503
a(I146
I2
tp5504
a(I202
I25
tp5505
a(I141
I106
tp5506
a(I144
I146
tp5507
a(I192
I142
tp5508
a(I211
I154
tp5509
a(I73
I157
tp5510
a(I164
I44
tp5511
a(I130
I76
tp5512
a(I97
I7
tp5513
a(I83
I84
tp5514
a(I46
I72
tp5515
a(I103
I41
tp5516
a(I140
I53
tp5517
a(I126
I154
tp5518
a(I79
I0
tp5519
a(I96
I72
tp5520
a(I153
I55
tp5521
a(I82
I119
tp5522
a(I45
I1
tp5523
a(I49
I70
tp5524
a(I135
I3
tp5525
a(I82
I6
tp5526
a(I45
I146
tp5527
a(I196
I2
tp5528
a(I159
I158
tp5529
a(I78
I106
tp5530
a(I44
I78
tp5531
a(I48
I9
tp5532
a(I105
I72
tp5533
a(I196
I145
tp5534
a(I162
I1
tp5535
a(I128
I145
tp5536
a(I209
I26
tp5537
a(I215
I4
tp5538
a(I162
I112
tp5539
a(I128
I0
tp5540
a(I114
I153
tp5541
a(I43
I159
tp5542
a(I181
I5
tp5543
a(I167
I118
tp5544
a(I43
I44
tp5545
a(I110
I4
tp5546
a(I213
I155
tp5547
a(I80
I55
tp5548
a(I214
I38
tp5549
a(I143
I110
tp5550
a(I147
I107
tp5551
a(I76
I3
tp5552
a(I42
I127
tp5553
a(I190
I15
tp5554
a(I202
I140
tp5555
a(I113
I2
tp5556
a(I42
I14
tp5557
a(I66
I152
tp5558
a(I213
I103
tp5559
a(I89
I41
tp5560
a(I217
I28
tp5561
a(I180
I144
tp5562
a(I75
I74
tp5563
a(I113
I147
tp5564
a(I95
I7
tp5565
a(I42
I145
tp5566
a(I217
I141
tp5567
a(I145
I152
tp5568
a(I98
I152
tp5569
a(I61
I4
tp5570
a(I47
I81
tp5571
a(I175
I12
tp5572
a(I145
I41
tp5573
a(I94
I84
tp5574
a(I212
I7
tp5575
a(I88
I13
tp5576
a(I46
I138
tp5577
a(I212
I118
tp5578
a(I178
I2
tp5579
a(I154
I43
tp5580
a(I144
I13
tp5581
a(I130
I80
tp5582
a(I79
I119
tp5583
a(I46
I100
tp5584
a(I174
I153
tp5585
a(I103
I77
tp5586
a(I197
I24
tp5587
a(I93
I87
tp5588
a(I139
I147
tp5589
a(I126
I1
tp5590
a(I195
I17
tp5591
a(I96
I84
tp5592
a(I187
I143
tp5593
a(I206
I153
tp5594
a(I45
I101
tp5595
a(I49
I98
tp5596
a(I68
I154
tp5597
a(I200
I18
tp5598
a(I92
I0
tp5599
a(I139
I113
tp5600
a(I58
I3
tp5601
a(I44
I50
tp5602
a(I48
I53
tp5603
a(I209
I6
tp5604
a(I67
I4
tp5605
a(I215
I40
tp5606
a(I77
I7
tp5607
a(I81
I76
tp5608
a(I191
I3
tp5609
a(I138
I157
tp5610
a(I114
I12
tp5611
a(I43
I8
tp5612
a(I100
I79
tp5613
a(I191
I144
tp5614
a(I67
I158
tp5615
a(I57
I148
tp5616
a(I204
I29
tp5617
a(I170
I157
tp5618
a(I104
I153
tp5619
a(I160
I155
tp5620
a(I52
I153
tp5621
a(I184
I17
tp5622
a(I42
I83
tp5623
a(I123
I4
tp5624
a(I52
I8
tp5625
a(I146
I53
tp5626
a(I166
I48
tp5627
a(I213
I123
tp5628
a(I89
I5
tp5629
a(I217
I120
tp5630
a(I75
I118
tp5631
a(I47
I132
tp5632
a(I216
I128
tp5633
a(I71
I2
tp5634
a(I195
I141
tp5635
a(I169
I14
tp5636
a(I193
I144
tp5637
a(I47
I117
tp5638
a(I216
I47
tp5639
a(I108
I5
tp5640
a(I61
I153
tp5641
a(I212
I27
tp5642
a(I175
I145
tp5643
a(I198
I18
tp5644
a(I74
I4
tp5645
a(I131
I87
tp5646
a(I190
I136
tp5647
a(I212
I138
tp5648
a(I140
I159
tp5649
a(I88
I152
tp5650
a(I93
I153
tp5651
a(I211
I5
tp5652
a(I207
I145
tp5653
a(I154
I15
tp5654
a(I46
I17
tp5655
a(I140
I110
tp5656
a(I144
I105
tp5657
a(I79
I75
tp5658
a(I207
I6
tp5659
a(I83
I12
tp5660
a(I211
I40
tp5661
a(I120
I7
tp5662
a(I173
I3
tp5663
a(I49
I61
tp5664
a(I197
I141
tp5665
a(I163
I53
tp5666
a(I92
I117
tp5667
a(I45
I73
tp5668
a(I139
I12
tp5669
a(I200
I14
tp5670
a(I44
I135
tp5671
a(I210
I155
tp5672
a(I48
I66
tp5673
a(I105
I119
tp5674
a(I200
I157
tp5675
a(I92
I155
tp5676
a(I44
I22
tp5677
a(I105
I0
tp5678
a(I185
I152
tp5679
a(I63
I155
tp5680
a(I101
I84
tp5681
a(I138
I46
tp5682
a(I105
I145
tp5683
a(I87
I1
tp5684
a(I77
I43
tp5685
a(I214
I140
tp5686
a(I53
I2
tp5687
a(I43
I116
tp5688
a(I143
I49
tp5689
a(I204
I1
tp5690
a(I137
I72
tp5691
a(I210
I109
tp5692
a(I202
I31
tp5693
a(I214
I110
tp5694
a(I76
I75
tp5695
a(I204
I144
tp5696
a(I42
I55
tp5697
a(I170
I0
tp5698
a(I133
I156
tp5699
a(I42
I18
tp5700
a(I142
I106
tp5701
a(I109
I13
tp5702
a(I184
I156
tp5703
a(I62
I157
tp5704
a(I213
I31
tp5705
a(I109
I158
tp5706
a(I165
I156
tp5707
a(I99
I152
tp5708
a(I199
I141
tp5709
a(I47
I152
tp5710
a(I213
I128
tp5711
a(I216
I156
tp5712
a(I179
I16
tp5713
a(I202
I147
tp5714
a(I165
I109
tp5715
a(I94
I157
tp5716
a(I169
I106
tp5717
a(I118
I7
tp5718
a(I84
I147
tp5719
a(I47
I9
tp5720
a(I88
I86
tp5721
a(I215
I25
tp5722
a(I84
I2
tp5723
a(I212
I63
tp5724
a(I121
I3
tp5725
a(I210
I124
tp5726
a(I50
I1
tp5727
a(I217
I115
tp5728
a(I46
I45
tp5729
a(I103
I4
tp5730
a(I97
I107
tp5731
a(I117
I152
tp5732
a(I154
I146
tp5733
a(I83
I40
tp5734
a(I69
I5
tp5735
a(I82
I144
tp5736
a(I135
I158
tp5737
a(I132
I12
tp5738
a(I102
I87
tp5739
a(I49
I89
tp5740
a(I186
I146
tp5741
a(I149
I14
tp5742
a(I120
I146
tp5743
a(I48
I159
tp5744
a(I139
I40
tp5745
a(I186
I5
tp5746
a(I115
I153
tp5747
a(I44
I107
tp5748
a(I48
I110
tp5749
a(I105
I83
tp5750
a(I115
I6
tp5751
a(I138
I115
tp5752
a(I158
I118
tp5753
a(I210
I143
tp5754
a(I162
I109
tp5755
a(I148
I40
tp5756
a(I134
I15
tp5757
a(I101
I72
tp5758
a(I195
I15
tp5759
a(I205
I154
tp5760
a(I208
I130
tp5761
a(I134
I158
tp5762
a(I87
I154
tp5763
a(I90
I106
tp5764
a(I80
I76
tp5765
a(I43
I80
tp5766
a(I100
I7
tp5767
a(I47
I69
tp5768
a(I124
I157
tp5769
a(I53
I151
tp5770
a(I190
I16
tp5771
a(I119
I154
tp5772
a(I66
I2
tp5773
a(I180
I14
tp5774
a(I42
I43
tp5775
a(I156
I55
tp5776
a(I217
I7
tp5777
a(I213
I51
tp5778
a(I199
I0
tp5779
a(I169
I53
tp5780
a(I217
I44
tp5781
a(I216
I120
tp5782
a(I195
I142
tp5783
a(I165
I1
tp5784
a(I47
I45
tp5785
a(I178
I140
tp5786
a(I179
I157
tp5787
a(I202
I6
tp5788
a(I192
I16
tp5789
a(I141
I105
tp5790
a(I144
I147
tp5791
a(I192
I143
tp5792
a(I211
I157
tp5793
a(I73
I156
tp5794
a(I164
I45
tp5795
a(I130
I77
tp5796
a(I97
I6
tp5797
a(I83
I87
tp5798
a(I46
I73
tp5799
a(I103
I40
tp5800
a(I140
I54
tp5801
a(I126
I155
tp5802
a(I97
I119
tp5803
a(I79
I3
tp5804
a(I96
I73
tp5805
a(I116
I4
tp5806
a(I153
I54
tp5807
a(I82
I116
tp5808
a(I45
I0
tp5809
a(I211
I22
tp5810
a(I49
I69
tp5811
a(I214
I130
tp5812
a(I82
I7
tp5813
a(I45
I145
tp5814
a(I196
I3
tp5815
a(I159
I153
tp5816
a(I149
I147
tp5817
a(I78
I107
tp5818
a(I44
I79
tp5819
a(I48
I10
tp5820
a(I105
I79
tp5821
a(I196
I146
tp5822
a(I128
I146
tp5823
a(I78
I154
tp5824
a(I209
I25
tp5825
a(I215
I7
tp5826
a(I162
I113
tp5827
a(I181
I147
tp5828
a(I128
I1
tp5829
a(I43
I158
tp5830
a(I181
I4
tp5831
a(I110
I154
tp5832
a(I167
I113
tp5833
a(I43
I47
tp5834
a(I100
I84
tp5835
a(I110
I5
tp5836
a(I80
I40
tp5837
a(I214
I39
tp5838
a(I143
I105
tp5839
a(I147
I106
tp5840
a(I42
I124
tp5841
a(I190
I12
tp5842
a(I113
I1
tp5843
a(I42
I15
tp5844
a(I136
I72
tp5845
a(I66
I153
tp5846
a(I213
I102
tp5847
a(I89
I40
tp5848
a(I217
I99
tp5849
a(I180
I145
tp5850
a(I75
I77
tp5851
a(I113
I146
tp5852
a(I207
I140
tp5853
a(I95
I6
tp5854
a(I42
I158
tp5855
a(I217
I140
tp5856
a(I145
I159
tp5857
a(I98
I153
tp5858
a(I61
I3
tp5859
a(I194
I147
tp5860
a(I193
I139
tp5861
a(I47
I80
tp5862
a(I175
I15
tp5863
a(I145
I40
tp5864
a(I94
I85
tp5865
a(I64
I152
tp5866
a(I212
I0
tp5867
a(I88
I14
tp5868
a(I211
I108
tp5869
a(I46
I139
tp5870
a(I212
I119
tp5871
a(I178
I3
tp5872
a(I208
I6
tp5873
a(I154
I40
tp5874
a(I144
I14
tp5875
a(I130
I81
tp5876
a(I46
I80
tp5877
a(I79
I118
tp5878
a(I46
I101
tp5879
a(I174
I158
tp5880
a(I103
I76
tp5881
a(I197
I7
tp5882
a(I93
I86
tp5883
a(I187
I17
tp5884
a(I49
I16
tp5885
a(I126
I6
tp5886
a(I96
I85
tp5887
a(I211
I54
tp5888
a(I187
I142
tp5889
a(I206
I158
tp5890
a(I45
I100
tp5891
a(I194
I2
tp5892
a(I49
I97
tp5893
a(I68
I155
tp5894
a(I200
I19
tp5895
a(I92
I1
tp5896
a(I207
I24
tp5897
a(I44
I156
tp5898
a(I139
I112
tp5899
a(I58
I0
tp5900
a(I44
I51
tp5901
a(I48
I54
tp5902
a(I105
I43
tp5903
a(I111
I5
tp5904
a(I152
I116
tp5905
a(I209
I5
tp5906
a(I215
I43
tp5907
a(I77
I6
tp5908
a(I191
I2
tp5909
a(I138
I154
tp5910
a(I161
I107
tp5911
a(I114
I13
tp5912
a(I43
I11
tp5913
a(I100
I72
tp5914
a(I191
I147
tp5915
a(I57
I155
tp5916
a(I204
I30
tp5917
a(I170
I154
tp5918
a(I137
I83
tp5919
a(I104
I154
tp5920
a(I160
I156
tp5921
a(I52
I154
tp5922
a(I184
I18
tp5923
a(I42
I80
tp5924
a(I45
I30
tp5925
a(I89
I155
tp5926
a(I52
I9
tp5927
a(I166
I49
tp5928
a(I213
I122
tp5929
a(I206
I133
tp5930
a(I89
I4
tp5931
a(I217
I127
tp5932
a(I75
I105
tp5933
a(I47
I135
tp5934
a(I210
I56
tp5935
a(I216
I129
tp5936
a(I217
I55
tp5937
a(I169
I13
tp5938
a(I47
I116
tp5939
a(I216
I48
tp5940
a(I108
I6
tp5941
a(I61
I152
tp5942
a(I212
I36
tp5943
a(I175
I144
tp5944
a(I210
I21
tp5945
a(I198
I19
tp5946
a(I74
I5
tp5947
a(I131
I86
tp5948
a(I212
I139
tp5949
a(I140
I152
tp5950
a(I88
I153
tp5951
a(I93
I152
tp5952
a(I188
I140
tp5953
a(I207
I144
tp5954
a(I154
I12
tp5955
a(I46
I22
tp5956
a(I140
I111
tp5957
a(I69
I159
tp5958
a(I144
I106
tp5959
a(I59
I153
tp5960
a(I79
I74
tp5961
a(I207
I1
tp5962
a(I83
I15
tp5963
a(I45
I55
tp5964
a(I173
I2
tp5965
a(I49
I60
tp5966
a(I197
I140
tp5967
a(I163
I52
tp5968
a(I92
I118
tp5969
a(I45
I72
tp5970
a(I139
I15
tp5971
a(I206
I25
tp5972
a(I200
I15
tp5973
a(I44
I128
tp5974
a(I210
I152
tp5975
a(I48
I67
tp5976
a(I105
I118
tp5977
a(I200
I158
tp5978
a(I182
I18
tp5979
a(I44
I23
tp5980
a(I105
I7
tp5981
a(I185
I159
tp5982
a(I63
I154
tp5983
a(I101
I83
tp5984
a(I138
I47
tp5985
a(I105
I144
tp5986
a(I87
I0
tp5987
a(I77
I42
tp5988
a(I214
I141
tp5989
a(I161
I119
tp5990
a(I53
I1
tp5991
a(I43
I119
tp5992
a(I90
I6
tp5993
a(I143
I48
tp5994
a(I147
I53
tp5995
a(I204
I2
tp5996
a(I137
I79
tp5997
a(I214
I111
tp5998
a(I204
I145
tp5999
a(I42
I52
tp6000
a(I170
I1
tp6001
a(I133
I155
tp6002
a(I142
I107
tp6003
a(I109
I12
tp6004
a(I184
I157
tp6005
a(I136
I0
tp6006
a(I213
I30
tp6007
a(I109
I157
tp6008
a(I165
I155
tp6009
a(I99
I155
tp6010
a(I47
I155
tp6011
a(I211
I117
tp6012
a(I213
I143
tp6013
a(I216
I157
tp6014
a(I179
I19
tp6015
a(I202
I144
tp6016
a(I165
I108
tp6017
a(I198
I134
tp6018
a(I169
I105
tp6019
a(I118
I4
tp6020
a(I84
I156
tp6021
a(I47
I8
tp6022
a(I88
I87
tp6023
a(I216
I12
tp6024
a(I209
I18
tp6025
a(I84
I3
tp6026
a(I212
I56
tp6027
a(I121
I2
tp6028
a(I202
I22
tp6029
a(I188
I144
tp6030
a(I46
I50
tp6031
a(I103
I7
tp6032
a(I215
I28
tp6033
a(I97
I106
tp6034
a(I154
I147
tp6035
a(I83
I43
tp6036
a(I69
I4
tp6037
a(I82
I145
tp6038
a(I135
I153
tp6039
a(I83
I152
tp6040
a(I102
I84
tp6041
a(I49
I88
tp6042
a(I183
I141
tp6043
a(I186
I147
tp6044
a(I149
I13
tp6045
a(I120
I147
tp6046
a(I48
I144
tp6047
a(I139
I43
tp6048
a(I186
I2
tp6049
a(I115
I152
tp6050
a(I44
I100
tp6051
a(I48
I111
tp6052
a(I105
I82
tp6053
a(I125
I15
tp6054
a(I138
I112
tp6055
a(I158
I119
tp6056
a(I215
I98
tp6057
a(I162
I106
tp6058
a(I148
I41
tp6059
a(I134
I12
tp6060
a(I101
I119
tp6061
a(I195
I14
tp6062
a(I205
I153
tp6063
a(I208
I131
tp6064
a(I134
I159
tp6065
a(I104
I52
tp6066
a(I90
I107
tp6067
a(I80
I77
tp6068
a(I43
I83
tp6069
a(I100
I0
tp6070
a(I124
I158
tp6071
a(I53
I150
tp6072
a(I211
I141
tp6073
a(I190
I17
tp6074
a(I66
I3
tp6075
a(I180
I15
tp6076
a(I76
I104
tp6077
a(I42
I40
tp6078
a(I217
I6
tp6079
a(I186
I143
tp6080
a(I194
I136
tp6081
a(I85
I7
tp6082
a(I213
I50
tp6083
a(I199
I3
tp6084
a(I169
I52
tp6085
a(I199
I17
tp6086
a(I216
I121
tp6087
a(I165
I0
tp6088
a(I47
I44
tp6089
a(I178
I141
tp6090
a(I179
I156
tp6091
a(I208
I31
tp6092
a(I202
I7
tp6093
a(I131
I1
tp6094
a(I192
I17
tp6095
a(I141
I104
tp6096
a(I211
I122
tp6097
a(I211
I156
tp6098
a(I164
I46
tp6099
a(I130
I74
tp6100
a(I97
I5
tp6101
a(I83
I86
tp6102
a(I46
I78
tp6103
a(I103
I43
tp6104
a(I140
I55
tp6105
a(I126
I152
tp6106
a(I211
I33
tp6107
a(I97
I118
tp6108
a(I79
I2
tp6109
a(I96
I74
tp6110
a(I116
I5
tp6111
a(I153
I53
tp6112
a(I82
I117
tp6113
a(I45
I127
tp6114
a(I49
I68
tp6115
a(I183
I145
tp6116
a(I82
I4
tp6117
a(I45
I144
tp6118
a(I196
I12
tp6119
a(I159
I152
tp6120
a(I149
I146
tp6121
a(I78
I104
tp6122
a(I44
I72
tp6123
a(I48
I11
tp6124
a(I105
I78
tp6125
a(I196
I147
tp6126
a(I215
I145
tp6127
a(I128
I147
tp6128
a(I78
I155
tp6129
a(I209
I24
tp6130
a(I215
I6
tp6131
a(I181
I146
tp6132
a(I128
I2
tp6133
a(I43
I145
tp6134
a(I101
I107
tp6135
a(I181
I3
tp6136
a(I110
I155
tp6137
a(I167
I112
tp6138
a(I43
I46
tp6139
a(I100
I85
tp6140
a(I139
I157
tp6141
a(I80
I41
tp6142
a(I210
I116
tp6143
a(I214
I36
tp6144
a(I143
I104
tp6145
a(I42
I125
tp6146
a(I190
I13
tp6147
a(I113
I0
tp6148
a(I42
I12
tp6149
a(I217
I110
tp6150
a(I136
I73
tp6151
a(I135
I146
tp6152
a(I217
I98
tp6153
a(I180
I146
tp6154
a(I75
I76
tp6155
a(I113
I145
tp6156
a(I95
I1
tp6157
a(I42
I159
tp6158
a(I217
I147
tp6159
a(I145
I158
tp6160
a(I61
I2
tp6161
a(I193
I138
tp6162
a(I47
I83
tp6163
a(I175
I14
tp6164
a(I210
I42
tp6165
a(I145
I47
tp6166
a(I64
I153
tp6167
a(I214
I20
tp6168
a(I212
I1
tp6169
a(I88
I15
tp6170
a(I46
I136
tp6171
a(I212
I112
tp6172
a(I178
I0
tp6173
a(I154
I41
tp6174
a(I139
I1
tp6175
a(I144
I15
tp6176
a(I46
I106
tp6177
a(I174
I159
tp6178
a(I103
I79
tp6179
a(I197
I6
tp6180
a(I93
I85
tp6181
a(I187
I16
tp6182
a(I49
I23
tp6183
a(I126
I7
tp6184
a(I157
I0
tp6185
a(I96
I86
tp6186
a(I206
I159
tp6187
a(I45
I99
tp6188
a(I49
I96
tp6189
a(I200
I20
tp6190
a(I92
I2
tp6191
a(I203
I25
tp6192
a(I206
I14
tp6193
a(I44
I157
tp6194
a(I48
I88
tp6195
a(I139
I115
tp6196
a(I211
I124
tp6197
a(I58
I1
tp6198
a(I44
I44
tp6199
a(I48
I55
tp6200
a(I105
I42
tp6201
a(I111
I4
tp6202
a(I152
I117
tp6203
a(I209
I4
tp6204
a(I215
I42
tp6205
a(I162
I146
tp6206
a(I77
I5
tp6207
a(I191
I13
tp6208
a(I138
I155
tp6209
a(I161
I106
tp6210
a(I43
I10
tp6211
a(I100
I73
tp6212
a(I191
I146
tp6213
a(I104
I12
tp6214
a(I57
I154
tp6215
a(I204
I31
tp6216
a(I170
I155
tp6217
a(I216
I118
tp6218
a(I137
I82
tp6219
a(I104
I155
tp6220
a(I160
I157
tp6221
a(I215
I134
tp6222
a(I52
I155
tp6223
a(I184
I19
tp6224
a(I42
I81
tp6225
a(I123
I6
tp6226
a(I160
I12
tp6227
a(I89
I154
tp6228
a(I52
I10
tp6229
a(I202
I137
tp6230
a(I166
I54
tp6231
a(I189
I143
tp6232
a(I213
I121
tp6233
a(I217
I126
tp6234
a(I75
I104
tp6235
a(I47
I134
tp6236
a(I216
I130
tp6237
a(I195
I135
tp6238
a(I165
I119
tp6239
a(I169
I12
tp6240
a(I47
I119
tp6241
a(I216
I49
tp6242
a(I108
I7
tp6243
a(I94
I54
tp6244
a(I212
I37
tp6245
a(I175
I147
tp6246
a(I198
I16
tp6247
a(I74
I2
tp6248
a(I209
I12
tp6249
a(I140
I153
tp6250
a(I88
I154
tp6251
a(I215
I119
tp6252
a(I188
I141
tp6253
a(I207
I147
tp6254
a(I154
I13
tp6255
a(I46
I23
tp6256
a(I140
I104
tp6257
a(I69
I158
tp6258
a(I144
I107
tp6259
a(I59
I152
tp6260
a(I79
I85
tp6261
a(I207
I0
tp6262
a(I83
I14
tp6263
a(I215
I18
tp6264
a(I45
I54
tp6265
a(I173
I1
tp6266
a(I49
I51
tp6267
a(I197
I139
tp6268
a(I163
I55
tp6269
a(I92
I119
tp6270
a(I45
I71
tp6271
a(I49
I140
tp6272
a(I44
I129
tp6273
a(I210
I153
tp6274
a(I48
I68
tp6275
a(I105
I117
tp6276
a(I200
I159
tp6277
a(I182
I19
tp6278
a(I44
I16
tp6279
a(I176
I152
tp6280
a(I105
I6
tp6281
a(I185
I158
tp6282
a(I101
I82
tp6283
a(I138
I44
tp6284
a(I195
I21
tp6285
a(I87
I3
tp6286
a(I185
I15
tp6287
a(I77
I41
tp6288
a(I208
I152
tp6289
a(I124
I4
tp6290
a(I161
I118
tp6291
a(I53
I0
tp6292
a(I43
I118
tp6293
a(I104
I104
tp6294
a(I90
I7
tp6295
a(I143
I51
tp6296
a(I147
I52
tp6297
a(I204
I3
tp6298
a(I214
I131
tp6299
a(I137
I78
tp6300
a(I214
I108
tp6301
a(I204
I146
tp6302
a(I42
I53
tp6303
a(I170
I14
tp6304
a(I133
I154
tp6305
a(I160
I40
tp6306
a(I142
I104
tp6307
a(I199
I137
tp6308
a(I184
I158
tp6309
a(I207
I133
tp6310
a(I99
I13
tp6311
a(I136
I1
tp6312
a(I213
I29
tp6313
a(I109
I156
tp6314
a(I165
I154
tp6315
a(I99
I154
tp6316
a(I194
I154
tp6317
a(I47
I154
tp6318
a(I213
I142
tp6319
a(I67
I152
tp6320
a(I179
I18
tp6321
a(I202
I145
tp6322
a(I165
I107
tp6323
a(I169
I104
tp6324
a(I118
I5
tp6325
a(I155
I13
tp6326
a(I84
I157
tp6327
a(I47
I11
tp6328
a(I216
I13
tp6329
a(I211
I101
tp6330
a(I84
I12
tp6331
a(I212
I57
tp6332
a(I208
I13
tp6333
a(I121
I1
tp6334
a(I188
I145
tp6335
a(I46
I51
tp6336
a(I103
I6
tp6337
a(I140
I12
tp6338
a(I97
I105
tp6339
a(I79
I41
tp6340
a(I154
I144
tp6341
a(I83
I42
tp6342
a(I69
I3
tp6343
a(I201
I155
tp6344
a(I211
I47
tp6345
a(I45
I26
tp6346
a(I83
I155
tp6347
a(I102
I85
tp6348
a(I49
I95
tp6349
a(I183
I140
tp6350
a(I186
I144
tp6351
a(I149
I12
tp6352
a(I207
I17
tp6353
a(I48
I145
tp6354
a(I139
I42
tp6355
a(I186
I3
tp6356
a(I115
I155
tp6357
a(I44
I101
tp6358
a(I48
I96
tp6359
a(I105
I81
tp6360
a(I125
I14
tp6361
a(I54
I10
tp6362
a(I138
I113
tp6363
a(I158
I116
tp6364
a(I215
I125
tp6365
a(I162
I107
tp6366
a(I148
I42
tp6367
a(I205
I7
tp6368
a(I134
I13
tp6369
a(I101
I118
tp6370
a(I190
I138
tp6371
a(I205
I152
tp6372
a(I208
I132
tp6373
a(I134
I156
tp6374
a(I104
I53
tp6375
a(I90
I104
tp6376
a(I80
I78
tp6377
a(I43
I82
tp6378
a(I171
I153
tp6379
a(I100
I1
tp6380
a(I124
I159
tp6381
a(I53
I149
tp6382
a(I100
I144
tp6383
a(I66
I0
tp6384
a(I210
I102
tp6385
a(I203
I153
tp6386
a(I76
I105
tp6387
a(I42
I41
tp6388
a(I42
I31
tp6389
a(I119
I5
tp6390
a(I160
I52
tp6391
a(I217
I5
tp6392
a(I99
I41
tp6393
a(I85
I6
tp6394
a(I213
I49
tp6395
a(I217
I40
tp6396
a(I199
I2
tp6397
a(I216
I122
tp6398
a(I165
I15
tp6399
a(I47
I47
tp6400
a(I88
I52
tp6401
a(I179
I159
tp6402
a(I202
I4
tp6403
a(I94
I14
tp6404
a(I131
I0
tp6405
a(I192
I18
tp6406
a(I189
I146
tp6407
a(I211
I159
tp6408
a(I217
I118
tp6409
a(I164
I47
tp6410
a(I130
I75
tp6411
a(I97
I4
tp6412
a(I150
I14
tp6413
a(I46
I79
tp6414
a(I103
I42
tp6415
a(I140
I48
tp6416
a(I126
I153
tp6417
a(I97
I117
tp6418
a(I211
I131
tp6419
a(I96
I75
tp6420
a(I116
I6
tp6421
a(I153
I52
tp6422
a(I45
I126
tp6423
a(I49
I123
tp6424
a(I183
I144
tp6425
a(I82
I5
tp6426
a(I45
I143
tp6427
a(I196
I13
tp6428
a(I159
I155
tp6429
a(I149
I145
tp6430
a(I78
I105
tp6431
a(I44
I73
tp6432
a(I48
I12
tp6433
a(I105
I77
tp6434
a(I196
I156
tp6435
a(I215
I144
tp6436
a(I189
I3
tp6437
a(I78
I152
tp6438
a(I209
I31
tp6439
a(I210
I136
tp6440
a(I181
I145
tp6441
a(I128
I3
tp6442
a(I43
I144
tp6443
a(I101
I106
tp6444
a(I181
I2
tp6445
a(I110
I152
tp6446
a(I213
I141
tp6447
a(I167
I115
tp6448
a(I43
I33
tp6449
a(I100
I86
tp6450
a(I194
I143
tp6451
a(I80
I42
tp6452
a(I47
I64
tp6453
a(I214
I37
tp6454
a(I143
I107
tp6455
a(I42
I122
tp6456
a(I113
I7
tp6457
a(I42
I13
tp6458
a(I136
I74
tp6459
a(I213
I100
tp6460
a(I217
I97
tp6461
a(I180
I147
tp6462
a(I75
I79
tp6463
a(I113
I144
tp6464
a(I166
I154
tp6465
a(I95
I0
tp6466
a(I42
I156
tp6467
a(I210
I0
tp6468
a(I217
I146
tp6469
a(I145
I157
tp6470
a(I198
I137
tp6471
a(I95
I145
tp6472
a(I61
I1
tp6473
a(I193
I137
tp6474
a(I47
I82
tp6475
a(I198
I154
tp6476
a(I145
I46
tp6477
a(I98
I6
tp6478
a(I64
I154
tp6479
a(I212
I2
tp6480
a(I127
I145
tp6481
a(I168
I104
tp6482
a(I46
I137
tp6483
a(I212
I113
tp6484
a(I178
I1
tp6485
a(I154
I54
tp6486
a(I215
I1
tp6487
a(I144
I0
tp6488
a(I150
I42
tp6489
a(I83
I117
tp6490
a(I46
I107
tp6491
a(I174
I156
tp6492
a(I103
I78
tp6493
a(I197
I5
tp6494
a(I93
I84
tp6495
a(I187
I19
tp6496
a(I199
I135
tp6497
a(I49
I22
tp6498
a(I126
I4
tp6499
a(I96
I87
tp6500
a(I198
I24
tp6501
a(I206
I156
tp6502
a(I82
I86
tp6503
a(I45
I98
tp6504
a(I49
I103
tp6505
a(I200
I21
tp6506
a(I92
I3
tp6507
a(I129
I15
tp6508
a(I206
I15
tp6509
a(I44
I158
tp6510
a(I48
I89
tp6511
a(I139
I114
tp6512
a(I44
I45
tp6513
a(I48
I40
tp6514
a(I105
I41
tp6515
a(I215
I133
tp6516
a(I111
I7
tp6517
a(I152
I118
tp6518
a(I215
I37
tp6519
a(I162
I147
tp6520
a(I77
I4
tp6521
a(I191
I12
tp6522
a(I138
I152
tp6523
a(I161
I105
tp6524
a(I43
I13
tp6525
a(I100
I74
tp6526
a(I191
I157
tp6527
a(I104
I13
tp6528
a(I57
I153
tp6529
a(I204
I24
tp6530
a(I170
I152
tp6531
a(I137
I81
tp6532
a(I104
I156
tp6533
a(I160
I158
tp6534
a(I42
I94
tp6535
a(I160
I13
tp6536
a(I89
I153
tp6537
a(I52
I11
tp6538
a(I166
I55
tp6539
a(I189
I142
tp6540
a(I213
I120
tp6541
a(I217
I125
tp6542
a(I209
I13
tp6543
a(I75
I107
tp6544
a(I47
I129
tp6545
a(I216
I131
tp6546
a(I165
I118
tp6547
a(I169
I115
tp6548
a(I47
I118
tp6549
a(I216
I50
tp6550
a(I108
I0
tp6551
a(I94
I55
tp6552
a(I98
I42
tp6553
a(I212
I38
tp6554
a(I175
I146
tp6555
a(I198
I17
tp6556
a(I74
I3
tp6557
a(I211
I115
tp6558
a(I140
I154
tp6559
a(I88
I155
tp6560
a(I188
I142
tp6561
a(I207
I146
tp6562
a(I46
I20
tp6563
a(I177
I155
tp6564
a(I140
I105
tp6565
a(I69
I157
tp6566
a(I144
I108
tp6567
a(I93
I7
tp6568
a(I59
I155
tp6569
a(I210
I115
tp6570
a(I150
I54
tp6571
a(I79
I84
tp6572
a(I207
I3
tp6573
a(I106
I146
tp6574
a(I45
I53
tp6575
a(I173
I0
tp6576
a(I49
I50
tp6577
a(I197
I138
tp6578
a(I163
I54
tp6579
a(I211
I61
tp6580
a(I45
I70
tp6581
a(I49
I131
tp6582
a(I78
I54
tp6583
a(I44
I130
tp6584
a(I135
I85
tp6585
a(I48
I69
tp6586
a(I105
I116
tp6587
a(I211
I14
tp6588
a(I182
I16
tp6589
a(I44
I17
tp6590
a(I176
I153
tp6591
a(I105
I5
tp6592
a(I185
I157
tp6593
a(I77
I87
tp6594
a(I101
I81
tp6595
a(I138
I45
tp6596
a(I195
I20
tp6597
a(I87
I2
tp6598
a(I185
I14
tp6599
a(I77
I40
tp6600
a(I208
I153
tp6601
a(I124
I5
tp6602
a(I161
I117
tp6603
a(I43
I105
tp6604
a(I104
I105
tp6605
a(I45
I62
tp6606
a(I90
I4
tp6607
a(I143
I50
tp6608
a(I147
I55
tp6609
a(I137
I77
tp6610
a(I214
I109
tp6611
a(I204
I147
tp6612
a(I42
I50
tp6613
a(I170
I15
tp6614
a(I133
I153
tp6615
a(I203
I129
tp6616
a(I135
I155
tp6617
a(I160
I41
tp6618
a(I142
I105
tp6619
a(I199
I136
tp6620
a(I184
I159
tp6621
a(I99
I12
tp6622
a(I136
I2
tp6623
a(I213
I28
tp6624
a(I109
I155
tp6625
a(I165
I153
tp6626
a(I99
I157
tp6627
a(I210
I53
tp6628
a(I216
I159
tp6629
a(I202
I158
tp6630
a(I165
I106
tp6631
a(I169
I111
tp6632
a(I155
I12
tp6633
a(I84
I158
tp6634
a(I47
I10
tp6635
a(I216
I14
tp6636
a(I84
I13
tp6637
a(I212
I58
tp6638
a(I210
I14
tp6639
a(I121
I0
tp6640
a(I211
I127
tp6641
a(I164
I52
tp6642
a(I188
I146
tp6643
a(I46
I48
tp6644
a(I103
I1
tp6645
a(I140
I13
tp6646
a(I93
I107
tp6647
a(I97
I104
tp6648
a(I79
I40
tp6649
a(I154
I145
tp6650
a(I69
I2
tp6651
a(I201
I154
tp6652
a(I45
I25
tp6653
a(I83
I154
tp6654
a(I102
I74
tp6655
a(I49
I94
tp6656
a(I135
I7
tp6657
a(I92
I84
tp6658
a(I183
I143
tp6659
a(I186
I145
tp6660
a(I48
I146
tp6661
a(I139
I45
tp6662
a(I186
I0
tp6663
a(I115
I154
tp6664
a(I152
I144
tp6665
a(I44
I102
tp6666
a(I101
I147
tp6667
a(I48
I97
tp6668
a(I105
I80
tp6669
a(I125
I13
tp6670
a(I54
I11
tp6671
a(I158
I117
tp6672
a(I210
I37
tp6673
a(I162
I104
tp6674
a(I148
I43
tp6675
a(I205
I6
tp6676
a(I134
I2
tp6677
a(I101
I117
tp6678
a(I208
I133
tp6679
a(I134
I157
tp6680
a(I104
I54
tp6681
a(I90
I105
tp6682
a(I80
I79
tp6683
a(I43
I85
tp6684
a(I171
I152
tp6685
a(I100
I2
tp6686
a(I124
I152
tp6687
a(I53
I148
tp6688
a(I210
I125
tp6689
a(I100
I145
tp6690
a(I66
I1
tp6691
a(I202
I128
tp6692
a(I203
I152
tp6693
a(I76
I106
tp6694
a(I42
I22
tp6695
a(I119
I4
tp6696
a(I160
I53
tp6697
a(I217
I4
tp6698
a(I99
I40
tp6699
a(I85
I5
tp6700
a(I213
I48
tp6701
a(I216
I123
tp6702
a(I165
I14
tp6703
a(I47
I46
tp6704
a(I88
I53
tp6705
a(I179
I158
tp6706
a(I202
I5
tp6707
a(I94
I15
tp6708
a(I131
I3
tp6709
a(I209
I21
tp6710
a(I192
I19
tp6711
a(I155
I153
tp6712
a(I215
I124
tp6713
a(I211
I158
tp6714
a(I164
I40
tp6715
a(I130
I72
tp6716
a(I150
I15
tp6717
a(I46
I76
tp6718
a(I140
I49
tp6719
a(I126
I158
tp6720
a(I97
I116
tp6721
a(I116
I7
tp6722
a(I45
I125
tp6723
a(I102
I118
tp6724
a(I49
I122
tp6725
a(I183
I147
tp6726
a(I82
I2
tp6727
a(I45
I142
tp6728
a(I196
I14
tp6729
a(I159
I154
tp6730
a(I149
I144
tp6731
a(I44
I74
tp6732
a(I48
I13
tp6733
a(I141
I116
tp6734
a(I105
I76
tp6735
a(I196
I157
tp6736
a(I215
I147
tp6737
a(I78
I153
tp6738
a(I209
I30
tp6739
a(I157
I158
tp6740
a(I87
I85
tp6741
a(I215
I0
tp6742
a(I181
I144
tp6743
a(I128
I4
tp6744
a(I43
I147
tp6745
a(I101
I105
tp6746
a(I181
I1
tp6747
a(I110
I153
tp6748
a(I147
I145
tp6749
a(I167
I114
tp6750
a(I43
I32
tp6751
a(I100
I87
tp6752
a(I194
I140
tp6753
a(I80
I43
tp6754
a(I214
I138
tp6755
a(I214
I58
tp6756
a(I143
I106
tp6757
a(I42
I123
tp6758
a(I113
I6
tp6759
a(I42
I10
tp6760
a(I136
I75
tp6761
a(I213
I99
tp6762
a(I217
I96
tp6763
a(I180
I156
tp6764
a(I75
I78
tp6765
a(I203
I21
tp6766
a(I166
I155
tp6767
a(I95
I3
tp6768
a(I42
I157
tp6769
a(I217
I145
tp6770
a(I145
I156
tp6771
a(I211
I25
tp6772
a(I95
I144
tp6773
a(I61
I0
tp6774
a(I193
I136
tp6775
a(I47
I93
tp6776
a(I198
I155
tp6777
a(I145
I45
tp6778
a(I98
I7
tp6779
a(I64
I155
tp6780
a(I212
I3
tp6781
a(I208
I20
tp6782
a(I127
I144
tp6783
a(I168
I105
tp6784
a(I46
I142
tp6785
a(I212
I114
tp6786
a(I211
I1
tp6787
a(I154
I55
tp6788
a(I144
I1
tp6789
a(I150
I43
tp6790
a(I214
I30
tp6791
a(I83
I116
tp6792
a(I46
I104
tp6793
a(I174
I157
tp6794
a(I103
I73
tp6795
a(I197
I4
tp6796
a(I211
I36
tp6797
a(I187
I18
tp6798
a(I150
I154
tp6799
a(I49
I21
tp6800
a(I126
I5
tp6801
a(I96
I104
tp6802
a(I206
I157
tp6803
a(I82
I87
tp6804
a(I45
I97
tp6805
a(I49
I102
tp6806
a(I200
I22
tp6807
a(I182
I154
tp6808
a(I129
I14
tp6809
a(I206
I12
tp6810
a(I44
I159
tp6811
a(I48
I90
tp6812
a(I139
I117
tp6813
a(I78
I74
tp6814
a(I44
I46
tp6815
a(I48
I41
tp6816
a(I190
I23
tp6817
a(I105
I40
tp6818
a(I111
I6
tp6819
a(I152
I119
tp6820
a(I81
I55
tp6821
a(I138
I54
tp6822
a(I215
I36
tp6823
a(I162
I144
tp6824
a(I77
I3
tp6825
a(I209
I139
tp6826
a(I191
I15
tp6827
a(I138
I153
tp6828
a(I157
I107
tp6829
a(I161
I104
tp6830
a(I43
I12
tp6831
a(I100
I75
tp6832
a(I191
I156
tp6833
a(I104
I14
tp6834
a(I57
I152
tp6835
a(I204
I25
tp6836
a(I170
I153
tp6837
a(I137
I80
tp6838
a(I104
I157
tp6839
a(I45
I48
tp6840
a(I160
I159
tp6841
a(I42
I95
tp6842
a(I136
I152
tp6843
a(I160
I14
tp6844
a(I89
I152
tp6845
a(I166
I52
tp6846
a(I189
I141
tp6847
a(I213
I7
tp6848
a(I217
I124
tp6849
a(I75
I106
tp6850
a(I47
I128
tp6851
a(I216
I132
tp6852
a(I165
I117
tp6853
a(I169
I114
tp6854
a(I47
I113
tp6855
a(I210
I39
tp6856
a(I216
I51
tp6857
a(I108
I1
tp6858
a(I94
I52
tp6859
a(I210
I26
tp6860
a(I98
I43
tp6861
a(I212
I39
tp6862
a(I175
I157
tp6863
a(I199
I25
tp6864
a(I108
I144
tp6865
a(I74
I0
tp6866
a(I189
I155
tp6867
a(I140
I155
tp6868
a(I88
I156
tp6869
a(I127
I5
tp6870
a(I188
I143
tp6871
a(I207
I157
tp6872
a(I46
I21
tp6873
a(I177
I154
tp6874
a(I140
I106
tp6875
a(I69
I156
tp6876
a(I144
I109
tp6877
a(I93
I6
tp6878
a(I59
I154
tp6879
a(I150
I55
tp6880
a(I79
I87
tp6881
a(I207
I2
tp6882
a(I210
I114
tp6883
a(I106
I147
tp6884
a(I45
I52
tp6885
a(I132
I0
tp6886
a(I49
I49
tp6887
a(I197
I137
tp6888
a(I96
I116
tp6889
a(I45
I69
tp6890
a(I49
I130
tp6891
a(I78
I55
tp6892
a(I44
I131
tp6893
a(I135
I84
tp6894
a(I48
I70
tp6895
a(I182
I17
tp6896
a(I129
I155
tp6897
a(I189
I12
tp6898
a(I44
I18
tp6899
a(I176
I154
tp6900
a(I105
I4
tp6901
a(I210
I147
tp6902
a(I91
I41
tp6903
a(I185
I156
tp6904
a(I77
I86
tp6905
a(I101
I80
tp6906
a(I138
I42
tp6907
a(I195
I23
tp6908
a(I161
I155
tp6909
a(I185
I13
tp6910
a(I208
I154
tp6911
a(I124
I6
tp6912
a(I161
I116
tp6913
a(I90
I146
tp6914
a(I43
I104
tp6915
a(I104
I106
tp6916
a(I90
I5
tp6917
a(I147
I54
tp6918
a(I137
I76
tp6919
a(I214
I98
tp6920
a(I204
I140
tp6921
a(I42
I51
tp6922
a(I170
I12
tp6923
a(I133
I152
tp6924
a(I160
I42
tp6925
a(I142
I110
tp6926
a(I199
I139
tp6927
a(I99
I15
tp6928
a(I136
I3
tp6929
a(I213
I27
tp6930
a(I109
I154
tp6931
a(I165
I152
tp6932
a(I99
I156
tp6933
a(I213
I140
tp6934
a(I216
I96
tp6935
a(I202
I159
tp6936
a(I165
I105
tp6937
a(I131
I153
tp6938
a(I169
I110
tp6939
a(I155
I15
tp6940
a(I84
I159
tp6941
a(I47
I21
tp6942
a(I216
I15
tp6943
a(I84
I14
tp6944
a(I212
I59
tp6945
a(I121
I7
tp6946
a(I164
I53
tp6947
a(I188
I147
tp6948
a(I181
I142
tp6949
a(I46
I49
tp6950
a(I103
I0
tp6951
a(I140
I14
tp6952
a(I93
I106
tp6953
a(I79
I43
tp6954
a(I154
I158
tp6955
a(I103
I145
tp6956
a(I69
I1
tp6957
a(I201
I153
tp6958
a(I135
I154
tp6959
a(I83
I157
tp6960
a(I102
I75
tp6961
a(I49
I93
tp6962
a(I106
I6
tp6963
a(I195
I27
tp6964
a(I92
I85
tp6965
a(I183
I142
tp6966
a(I186
I158
tp6967
a(I48
I147
tp6968
a(I139
I44
tp6969
a(I186
I1
tp6970
a(I115
I157
tp6971
a(I152
I145
tp6972
a(I44
I103
tp6973
a(I101
I146
tp6974
a(I48
I98
tp6975
a(I105
I87
tp6976
a(I125
I12
tp6977
a(I54
I8
tp6978
a(I152
I0
tp6979
a(I215
I127
tp6980
a(I162
I105
tp6981
a(I91
I53
tp6982
a(I148
I52
tp6983
a(I205
I5
tp6984
a(I134
I3
tp6985
a(I101
I116
tp6986
a(I208
I134
tp6987
a(I134
I146
tp6988
a(I104
I55
tp6989
a(I90
I118
tp6990
a(I43
I84
tp6991
a(I171
I155
tp6992
a(I100
I3
tp6993
a(I124
I153
tp6994
a(I214
I132
tp6995
a(I100
I146
tp6996
a(I156
I156
tp6997
a(I203
I155
tp6998
a(I76
I107
tp6999
a(I42
I23
tp7000
a(I136
I80
tp7001
a(I119
I7
tp7002
a(I85
I147
tp7003
a(I160
I54
tp7004
a(I207
I128
tp7005
a(I99
I43
tp7006
a(I85
I4
tp7007
a(I213
I63
tp7008
a(I67
I159
tp7009
a(I165
I13
tp7010
a(I47
I41
tp7011
a(I88
I54
tp7012
a(I202
I2
tp7013
a(I94
I12
tp7014
a(I131
I2
tp7015
a(I192
I20
tp7016
a(I155
I152
tp7017
a(I208
I2
tp7018
a(I164
I41
tp7019
a(I130
I73
tp7020
a(I211
I15
tp7021
a(I150
I12
tp7022
a(I46
I77
tp7023
a(I140
I50
tp7024
a(I126
I159
tp7025
a(I211
I50
tp7026
a(I116
I0
tp7027
a(I45
I124
tp7028
a(I194
I6
tp7029
a(I102
I119
tp7030
a(I49
I121
tp7031
a(I183
I146
tp7032
a(I207
I28
tp7033
a(I82
I3
tp7034
a(I135
I15
tp7035
a(I196
I15
tp7036
a(I149
I159
tp7037
a(I44
I75
tp7038
a(I48
I14
tp7039
a(I196
I158
tp7040
a(I215
I146
tp7041
a(I78
I158
tp7042
a(I209
I29
tp7043
a(I101
I7
tp7044
a(I87
I84
tp7045
a(I215
I3
tp7046
a(I181
I159
tp7047
a(I128
I5
tp7048
a(I114
I146
tp7049
a(I199
I16
tp7050
a(I43
I146
tp7051
a(I101
I104
tp7052
a(I181
I0
tp7053
a(I110
I158
tp7054
a(I147
I144
tp7055
a(I167
I109
tp7056
a(I43
I35
tp7057
a(I100
I80
tp7058
a(I194
I141
tp7059
a(I157
I55
tp7060
a(I90
I74
tp7061
a(I147
I1
tp7062
a(I214
I59
tp7063
a(I143
I117
tp7064
a(I42
I120
tp7065
a(I133
I79
tp7066
a(I210
I99
tp7067
a(I113
I5
tp7068
a(I42
I11
tp7069
a(I132
I154
tp7070
a(I213
I98
tp7071
a(I206
I129
tp7072
a(I217
I103
tp7073
a(I180
I157
tp7074
a(I203
I20
tp7075
a(I166
I152
tp7076
a(I95
I2
tp7077
a(I42
I154
tp7078
a(I210
I60
tp7079
a(I217
I144
tp7080
a(I145
I147
tp7081
a(I207
I131
tp7082
a(I95
I147
tp7083
a(I151
I157
tp7084
a(I193
I143
tp7085
a(I47
I92
tp7086
a(I198
I152
tp7087
a(I145
I44
tp7088
a(I98
I4
tp7089
a(I64
I156
tp7090
a(I212
I12
tp7091
a(I210
I25
tp7092
a(I186
I136
tp7093
a(I127
I147
tp7094
a(I168
I106
tp7095
a(I46
I143
tp7096
a(I212
I115
tp7097
a(I154
I52
tp7098
a(I144
I2
tp7099
a(I150
I40
tp7100
a(I83
I119
tp7101
a(I46
I105
tp7102
a(I103
I72
tp7103
a(I197
I3
tp7104
a(I187
I21
tp7105
a(I150
I155
tp7106
a(I49
I20
tp7107
a(I135
I12
tp7108
a(I96
I105
tp7109
a(I82
I84
tp7110
a(I45
I96
tp7111
a(I49
I101
tp7112
a(I206
I21
tp7113
a(I200
I23
tp7114
a(I182
I155
tp7115
a(I129
I13
tp7116
a(I206
I13
tp7117
a(I44
I152
tp7118
a(I48
I91
tp7119
a(I139
I116
tp7120
a(I115
I147
tp7121
a(I78
I75
tp7122
a(I44
I47
tp7123
a(I48
I42
tp7124
a(I111
I1
tp7125
a(I81
I54
tp7126
a(I138
I55
tp7127
a(I215
I39
tp7128
a(I162
I145
tp7129
a(I77
I2
tp7130
a(I209
I138
tp7131
a(I191
I14
tp7132
a(I157
I106
tp7133
a(I43
I15
tp7134
a(I100
I116
tp7135
a(I191
I159
tp7136
a(I104
I15
tp7137
a(I57
I159
tp7138
a(I204
I26
tp7139
a(I122
I12
tp7140
a(I104
I158
tp7141
a(I160
I144
tp7142
a(I42
I92
tp7143
a(I136
I153
tp7144
a(I160
I15
tp7145
a(I89
I159
tp7146
a(I166
I53
tp7147
a(I189
I140
tp7148
a(I85
I75
tp7149
a(I213
I6
tp7150
a(I142
I2
tp7151
a(I47
I131
tp7152
a(I216
I133
tp7153
a(I165
I116
tp7154
a(I169
I113
tp7155
a(I47
I112
tp7156
a(I216
I52
tp7157
a(I203
I24
tp7158
a(I108
I2
tp7159
a(I94
I53
tp7160
a(I98
I40
tp7161
a(I212
I32
tp7162
a(I175
I156
tp7163
a(I215
I101
tp7164
a(I108
I145
tp7165
a(I74
I1
tp7166
a(I88
I157
tp7167
a(I127
I4
tp7168
a(I188
I136
tp7169
a(I207
I156
tp7170
a(I46
I26
tp7171
a(I177
I153
tp7172
a(I140
I107
tp7173
a(I69
I155
tp7174
a(I144
I110
tp7175
a(I201
I19
tp7176
a(I93
I5
tp7177
a(I59
I157
tp7178
a(I150
I52
tp7179
a(I79
I86
tp7180
a(I207
I13
tp7181
a(I106
I144
tp7182
a(I45
I51
tp7183
a(I49
I48
tp7184
a(I197
I136
tp7185
a(I96
I117
tp7186
a(I45
I68
tp7187
a(I139
I3
tp7188
a(I78
I52
tp7189
a(I44
I124
tp7190
a(I135
I87
tp7191
a(I48
I71
tp7192
a(I176
I12
tp7193
a(I92
I144
tp7194
a(I129
I154
tp7195
a(I44
I19
tp7196
a(I176
I155
tp7197
a(I195
I137
tp7198
a(I91
I40
tp7199
a(I77
I85
tp7200
a(I138
I43
tp7201
a(I195
I22
tp7202
a(I161
I154
tp7203
a(I185
I12
tp7204
a(I208
I155
tp7205
a(I124
I7
tp7206
a(I90
I147
tp7207
a(I167
I53
tp7208
a(I43
I107
tp7209
a(I100
I104
tp7210
a(I104
I107
tp7211
a(I90
I2
tp7212
a(I214
I99
tp7213
a(I204
I141
tp7214
a(I42
I48
tp7215
a(I170
I13
tp7216
a(I156
I40
tp7217
a(I160
I43
tp7218
a(I142
I111
tp7219
a(I199
I138
tp7220
a(I95
I53
tp7221
a(I99
I14
tp7222
a(I136
I4
tp7223
a(I213
I26
tp7224
a(I109
I153
tp7225
a(I99
I159
tp7226
a(I213
I139
tp7227
a(I216
I97
tp7228
a(I202
I156
tp7229
a(I165
I104
tp7230
a(I131
I152
tp7231
a(I169
I109
tp7232
a(I155
I14
tp7233
a(I84
I152
tp7234
a(I47
I20
tp7235
a(I216
I16
tp7236
a(I208
I27
tp7237
a(I84
I15
tp7238
a(I211
I118
tp7239
a(I121
I6
tp7240
a(I164
I54
tp7241
a(I46
I54
tp7242
a(I103
I3
tp7243
a(I140
I15
tp7244
a(I201
I15
tp7245
a(I93
I105
tp7246
a(I121
I159
tp7247
a(I79
I42
tp7248
a(I154
I159
tp7249
a(I103
I144
tp7250
a(I69
I0
tp7251
a(I201
I152
tp7252
a(I45
I23
tp7253
a(I83
I156
tp7254
a(I102
I72
tp7255
a(I49
I92
tp7256
a(I106
I7
tp7257
a(I92
I86
tp7258
a(I186
I159
tp7259
a(I48
I148
tp7260
a(I139
I47
tp7261
a(I196
I20
tp7262
a(I186
I14
tp7263
a(I115
I156
tp7264
a(I152
I146
tp7265
a(I44
I96
tp7266
a(I101
I145
tp7267
a(I48
I99
tp7268
a(I105
I86
tp7269
a(I215
I137
tp7270
a(I54
I9
tp7271
a(I115
I13
tp7272
a(I152
I1
tp7273
a(I215
I126
tp7274
a(I91
I52
tp7275
a(I148
I53
tp7276
a(I205
I4
tp7277
a(I134
I0
tp7278
a(I215
I141
tp7279
a(I208
I135
tp7280
a(I171
I13
tp7281
a(I134
I147
tp7282
a(I139
I153
tp7283
a(I87
I145
tp7284
a(I90
I119
tp7285
a(I43
I87
tp7286
a(I171
I154
tp7287
a(I100
I12
tp7288
a(I45
I57
tp7289
a(I124
I154
tp7290
a(I100
I147
tp7291
a(I119
I145
tp7292
a(I156
I157
tp7293
a(I203
I154
tp7294
a(I42
I20
tp7295
a(I136
I81
tp7296
a(I203
I132
tp7297
a(I119
I6
tp7298
a(I156
I12
tp7299
a(I85
I146
tp7300
a(I160
I55
tp7301
a(I146
I118
tp7302
a(I95
I41
tp7303
a(I99
I42
tp7304
a(I85
I3
tp7305
a(I213
I62
tp7306
a(I75
I53
tp7307
a(I210
I46
tp7308
a(I216
I125
tp7309
a(I165
I12
tp7310
a(I47
I40
tp7311
a(I88
I55
tp7312
a(I202
I3
tp7313
a(I94
I13
tp7314
a(I131
I5
tp7315
a(I192
I21
tp7316
a(I155
I155
tp7317
a(I49
I143
tp7318
a(I164
I42
tp7319
a(I150
I13
tp7320
a(I190
I139
tp7321
a(I121
I147
tp7322
a(I140
I51
tp7323
a(I126
I156
tp7324
a(I116
I1
tp7325
a(I45
I123
tp7326
a(I102
I116
tp7327
a(I49
I120
tp7328
a(I135
I2
tp7329
a(I82
I0
tp7330
a(I45
I140
tp7331
a(I149
I158
tp7332
a(I44
I68
tp7333
a(I48
I15
tp7334
a(I196
I159
tp7335
a(I203
I19
tp7336
a(I78
I159
tp7337
a(I209
I28
tp7338
a(I101
I6
tp7339
a(I87
I87
tp7340
a(I215
I2
tp7341
a(I181
I158
tp7342
a(I128
I6
tp7343
a(I114
I147
tp7344
a(I43
I149
tp7345
a(I191
I21
tp7346
a(I181
I15
tp7347
a(I110
I159
tp7348
a(I147
I147
tp7349
a(I167
I108
tp7350
a(I43
I34
tp7351
a(I100
I81
tp7352
a(I194
I138
tp7353
a(I157
I54
tp7354
a(I90
I75
tp7355
a(I110
I14
tp7356
a(I147
I0
tp7357
a(I214
I56
tp7358
a(I143
I116
tp7359
a(I42
I121
tp7360
a(I133
I78
tp7361
a(I202
I141
tp7362
a(I113
I4
tp7363
a(I166
I14
tp7364
a(I42
I8
tp7365
a(I136
I77
tp7366
a(I213
I97
tp7367
a(I217
I102
tp7368
a(I180
I158
tp7369
a(I203
I23
tp7370
a(I166
I153
tp7371
a(I95
I13
tp7372
a(I42
I155
tp7373
a(I145
I146
tp7374
a(I95
I146
tp7375
a(I98
I146
tp7376
a(I151
I156
tp7377
a(I193
I142
tp7378
a(I47
I95
tp7379
a(I198
I153
tp7380
a(I98
I5
tp7381
a(I151
I13
tp7382
a(I64
I157
tp7383
a(I212
I13
tp7384
a(I141
I55
tp7385
a(I127
I146
tp7386
a(I168
I107
tp7387
a(I46
I140
tp7388
a(I212
I124
tp7389
a(I154
I53
tp7390
a(I144
I3
tp7391
a(I202
I28
tp7392
a(I150
I41
tp7393
a(I83
I118
tp7394
a(I46
I110
tp7395
a(I103
I75
tp7396
a(I197
I2
tp7397
a(I187
I20
tp7398
a(I150
I152
tp7399
a(I49
I11
tp7400
a(I197
I147
tp7401
a(I195
I16
tp7402
a(I96
I106
tp7403
a(I82
I85
tp7404
a(I45
I95
tp7405
a(I49
I100
tp7406
a(I200
I24
tp7407
a(I182
I152
tp7408
a(I129
I12
tp7409
a(I206
I18
tp7410
a(I44
I153
tp7411
a(I48
I92
tp7412
a(I139
I119
tp7413
a(I78
I72
tp7414
a(I44
I40
tp7415
a(I48
I43
tp7416
a(I111
I0
tp7417
a(I81
I53
tp7418
a(I138
I52
tp7419
a(I157
I153
tp7420
a(I215
I38
tp7421
a(I77
I1
tp7422
a(I209
I137
tp7423
a(I157
I105
tp7424
a(I114
I6
tp7425
a(I43
I14
tp7426
a(I100
I117
tp7427
a(I191
I158
tp7428
a(I181
I19
tp7429
a(I57
I158
tp7430
a(I204
I27
tp7431
a(I137
I86
tp7432
a(I104
I159
tp7433
a(I160
I145
tp7434
a(I42
I93
tp7435
a(I80
I152
tp7436
a(I136
I154
tp7437
a(I160
I0
tp7438
a(I89
I158
tp7439
a(I166
I42
tp7440
a(I189
I139
tp7441
a(I156
I116
tp7442
a(I85
I74
tp7443
a(I213
I5
tp7444
a(I89
I15
tp7445
a(I142
I3
tp7446
a(I194
I158
tp7447
a(I47
I130
tp7448
a(I216
I134
tp7449
a(I165
I115
tp7450
a(I169
I112
tp7451
a(I47
I115
tp7452
a(I216
I53
tp7453
a(I108
I3
tp7454
a(I145
I15
tp7455
a(I211
I97
tp7456
a(I98
I41
tp7457
a(I212
I33
tp7458
a(I175
I159
tp7459
a(I108
I146
tp7460
a(I215
I132
tp7461
a(I190
I137
tp7462
a(I212
I144
tp7463
a(I88
I158
tp7464
a(I127
I7
tp7465
a(I93
I147
tp7466
a(I211
I4
tp7467
a(I188
I137
tp7468
a(I207
I159
tp7469
a(I46
I27
tp7470
a(I177
I152
tp7471
a(I69
I154
tp7472
a(I144
I111
tp7473
a(I201
I18
tp7474
a(I93
I4
tp7475
a(I130
I14
tp7476
a(I59
I156
tp7477
a(I150
I53
tp7478
a(I79
I81
tp7479
a(I207
I12
tp7480
a(I106
I145
tp7481
a(I211
I43
tp7482
a(I120
I13
tp7483
a(I49
I55
tp7484
a(I96
I118
tp7485
a(I45
I67
tp7486
a(I139
I2
tp7487
a(I78
I53
tp7488
a(I44
I125
tp7489
a(I135
I86
tp7490
a(I48
I120
tp7491
a(I176
I13
tp7492
a(I92
I145
tp7493
a(I129
I153
tp7494
a(I44
I12
tp7495
a(I176
I156
tp7496
a(I195
I136
tp7497
a(I91
I43
tp7498
a(I77
I84
tp7499
a(I205
I31
tp7500
a(I138
I40
tp7501
a(I105
I155
tp7502
a(I161
I153
tp7503
a(I185
I19
tp7504
a(I208
I156
tp7505
a(I124
I0
tp7506
a(I90
I144
tp7507
a(I167
I52
tp7508
a(I43
I106
tp7509
a(I100
I105
tp7510
a(I90
I3
tp7511
a(I210
I106
tp7512
a(I214
I96
tp7513
a(I204
I142
tp7514
a(I42
I49
tp7515
a(I42
I19
tp7516
a(I156
I41
tp7517
a(I142
I108
tp7518
a(I109
I7
tp7519
a(I95
I52
tp7520
a(I136
I5
tp7521
a(I213
I25
tp7522
a(I89
I107
tp7523
a(I109
I152
tp7524
a(I99
I158
tp7525
a(I199
I140
tp7526
a(I213
I138
tp7527
a(I216
I98
tp7528
a(I202
I157
tp7529
a(I75
I153
tp7530
a(I131
I155
tp7531
a(I169
I108
tp7532
a(I155
I1
tp7533
a(I84
I153
tp7534
a(I47
I23
tp7535
a(I210
I32
tp7536
a(I216
I17
tp7537
a(I151
I53
tp7538
a(I211
I17
tp7539
a(I107
I153
tp7540
a(I121
I5
tp7541
a(I217
I114
tp7542
a(I164
I55
tp7543
a(I195
I143
tp7544
a(I46
I55
tp7545
a(I103
I2
tp7546
a(I201
I14
tp7547
a(I93
I104
tp7548
a(I79
I53
tp7549
a(I154
I156
tp7550
a(I103
I147
tp7551
a(I201
I159
tp7552
a(I45
I22
tp7553
a(I42
I143
tp7554
a(I102
I73
tp7555
a(I49
I83
tp7556
a(I106
I4
tp7557
a(I92
I87
tp7558
a(I186
I156
tp7559
a(I120
I152
tp7560
a(I48
I149
tp7561
a(I139
I46
tp7562
a(I196
I21
tp7563
a(I186
I15
tp7564
a(I115
I159
tp7565
a(I152
I147
tp7566
a(I44
I97
tp7567
a(I101
I144
tp7568
a(I48
I100
tp7569
a(I105
I85
tp7570
a(I215
I136
tp7571
a(I208
I23
tp7572
a(I189
I7
tp7573
a(I115
I12
tp7574
a(I152
I2
tp7575
a(I210
I140
tp7576
a(I91
I55
tp7577
a(I148
I54
tp7578
a(I205
I3
tp7579
a(I134
I1
tp7580
a(I43
I57
tp7581
a(I171
I12
tp7582
a(I134
I144
tp7583
a(I87
I144
tp7584
a(I90
I116
tp7585
a(I43
I86
tp7586
a(I171
I157
tp7587
a(I100
I13
tp7588
a(I47
I68
tp7589
a(I104
I72
tp7590
a(I124
I155
tp7591
a(I100
I156
tp7592
a(I119
I144
tp7593
a(I156
I158
tp7594
a(I203
I157
tp7595
a(I42
I21
tp7596
a(I136
I82
tp7597
a(I119
I1
tp7598
a(I156
I13
tp7599
a(I85
I145
tp7600
a(I146
I119
tp7601
a(I166
I114
tp7602
a(I95
I40
tp7603
a(I85
I2
tp7604
a(I213
I61
tp7605
a(I75
I52
tp7606
a(I216
I126
tp7607
a(I47
I43
tp7608
a(I202
I0
tp7609
a(I168
I112
tp7610
a(I131
I4
tp7611
a(I192
I22
tp7612
a(I155
I154
tp7613
a(I70
I154
tp7614
a(I164
I43
tp7615
a(I150
I2
tp7616
a(I121
I146
tp7617
a(I140
I44
tp7618
a(I126
I157
tp7619
a(I102
I154
tp7620
a(I215
I27
tp7621
a(I116
I2
tp7622
a(I45
I122
tp7623
a(I102
I117
tp7624
a(I49
I127
tp7625
a(I210
I122
tp7626
a(I82
I1
tp7627
a(I45
I139
tp7628
a(I149
I157
tp7629
a(I44
I69
tp7630
a(I48
I0
tp7631
a(I196
I152
tp7632
a(I78
I156
tp7633
a(I134
I82
tp7634
a(I101
I5
tp7635
a(I87
I86
tp7636
a(I125
I159
tp7637
a(I181
I157
tp7638
a(I128
I7
tp7639
a(I114
I144
tp7640
a(I43
I148
tp7641
a(I191
I20
tp7642
a(I181
I14
tp7643
a(I110
I156
tp7644
a(I147
I146
tp7645
a(I167
I111
tp7646
a(I43
I37
tp7647
a(I100
I82
tp7648
a(I194
I139
tp7649
a(I157
I53
tp7650
a(I90
I72
tp7651
a(I110
I15
tp7652
a(I147
I3
tp7653
a(I214
I57
tp7654
a(I143
I119
tp7655
a(I42
I102
tp7656
a(I133
I77
tp7657
a(I166
I15
tp7658
a(I42
I9
tp7659
a(I136
I78
tp7660
a(I213
I96
tp7661
a(I217
I101
tp7662
a(I180
I159
tp7663
a(I203
I22
tp7664
a(I166
I158
tp7665
a(I95
I12
tp7666
a(I42
I152
tp7667
a(I99
I73
tp7668
a(I145
I145
tp7669
a(I95
I157
tp7670
a(I98
I147
tp7671
a(I151
I159
tp7672
a(I194
I144
tp7673
a(I193
I141
tp7674
a(I47
I94
tp7675
a(I198
I158
tp7676
a(I165
I47
tp7677
a(I98
I2
tp7678
a(I151
I12
tp7679
a(I64
I158
tp7680
a(I212
I14
tp7681
a(I141
I54
tp7682
a(I127
I157
tp7683
a(I168
I108
tp7684
a(I46
I141
tp7685
a(I212
I125
tp7686
a(I208
I7
tp7687
a(I144
I4
tp7688
a(I46
I81
tp7689
a(I46
I111
tp7690
a(I103
I74
tp7691
a(I197
I1
tp7692
a(I187
I23
tp7693
a(I150
I153
tp7694
a(I153
I107
tp7695
a(I49
I10
tp7696
a(I197
I146
tp7697
a(I92
I104
tp7698
a(I96
I107
tp7699
a(I211
I57
tp7700
a(I45
I94
tp7701
a(I194
I3
tp7702
a(I49
I155
tp7703
a(I200
I25
tp7704
a(I182
I153
tp7705
a(I129
I3
tp7706
a(I207
I27
tp7707
a(I206
I19
tp7708
a(I44
I154
tp7709
a(I48
I93
tp7710
a(I139
I118
tp7711
a(I78
I73
tp7712
a(I81
I155
tp7713
a(I44
I41
tp7714
a(I48
I44
tp7715
a(I111
I3
tp7716
a(I194
I142
tp7717
a(I81
I52
tp7718
a(I138
I53
tp7719
a(I211
I24
tp7720
a(I215
I33
tp7721
a(I77
I0
tp7722
a(I209
I136
tp7723
a(I157
I104
tp7724
a(I114
I7
tp7725
a(I43
I1
tp7726
a(I100
I118
tp7727
a(I191
I153
tp7728
a(I57
I157
tp7729
a(I204
I20
tp7730
a(I137
I85
tp7731
a(I160
I146
tp7732
a(I42
I90
tp7733
a(I80
I153
tp7734
a(I136
I155
tp7735
a(I203
I141
tp7736
a(I135
I159
tp7737
a(I160
I1
tp7738
a(I89
I157
tp7739
a(I166
I43
tp7740
a(I189
I138
tp7741
a(I156
I117
tp7742
a(I85
I73
tp7743
a(I213
I4
tp7744
a(I206
I138
tp7745
a(I89
I14
tp7746
a(I142
I0
tp7747
a(I47
I141
tp7748
a(I210
I57
tp7749
a(I216
I135
tp7750
a(I217
I54
tp7751
a(I165
I114
tp7752
a(I169
I119
tp7753
a(I47
I114
tp7754
a(I216
I54
tp7755
a(I145
I14
tp7756
a(I212
I34
tp7757
a(I175
I158
tp7758
a(I210
I18
tp7759
a(I108
I147
tp7760
a(I212
I145
tp7761
a(I88
I159
tp7762
a(I127
I6
tp7763
a(I74
I158
tp7764
a(I93
I146
tp7765
a(I188
I138
tp7766
a(I207
I158
tp7767
a(I46
I24
tp7768
a(I177
I159
tp7769
a(I69
I153
tp7770
a(I201
I17
tp7771
a(I93
I3
tp7772
a(I130
I15
tp7773
a(I59
I159
tp7774
a(I79
I80
tp7775
a(I207
I15
tp7776
a(I106
I158
tp7777
a(I120
I14
tp7778
a(I49
I54
tp7779
a(I96
I119
tp7780
a(I82
I54
tp7781
a(I45
I66
tp7782
a(I139
I5
tp7783
a(I206
I30
tp7784
a(I44
I126
tp7785
a(I135
I81
tp7786
a(I48
I121
tp7787
a(I176
I14
tp7788
a(I200
I132
tp7789
a(I92
I146
tp7790
a(I129
I152
tp7791
a(I44
I13
tp7792
a(I176
I157
tp7793
a(I195
I139
tp7794
a(I91
I42
tp7795
a(I77
I83
tp7796
a(I205
I30
tp7797
a(I138
I41
tp7798
a(I105
I154
tp7799
a(I161
I152
tp7800
a(I185
I18
tp7801
a(I208
I157
tp7802
a(I124
I1
tp7803
a(I210
I27
tp7804
a(I90
I145
tp7805
a(I53
I11
tp7806
a(I76
I156
tp7807
a(I167
I55
tp7808
a(I43
I109
tp7809
a(I100
I106
tp7810
a(I90
I0
tp7811
a(I214
I97
tp7812
a(I204
I143
tp7813
a(I42
I62
tp7814
a(I156
I42
tp7815
a(I142
I109
tp7816
a(I109
I6
tp7817
a(I95
I55
tp7818
a(I136
I6
tp7819
a(I213
I24
tp7820
a(I89
I106
tp7821
a(I199
I21
tp7822
a(I213
I137
tp7823
a(I216
I99
tp7824
a(I202
I154
tp7825
a(I75
I152
tp7826
a(I198
I135
tp7827
a(I131
I154
tp7828
a(I155
I0
tp7829
a(I84
I154
tp7830
a(I47
I22
tp7831
a(I216
I18
tp7832
a(I209
I17
tp7833
a(I151
I52
tp7834
a(I107
I152
tp7835
a(I121
I4
tp7836
a(I164
I48
tp7837
a(I202
I23
tp7838
a(I154
I106
tp7839
a(I46
I52
tp7840
a(I215
I31
tp7841
a(I201
I13
tp7842
a(I79
I52
tp7843
a(I154
I157
tp7844
a(I103
I146
tp7845
a(I201
I158
tp7846
a(I45
I21
tp7847
a(I83
I158
tp7848
a(I102
I78
tp7849
a(I49
I82
tp7850
a(I106
I5
tp7851
a(I186
I157
tp7852
a(I198
I22
tp7853
a(I120
I153
tp7854
a(I48
I150
tp7855
a(I196
I22
tp7856
a(I186
I12
tp7857
a(I115
I158
tp7858
a(I44
I98
tp7859
a(I101
I159
tp7860
a(I48
I101
tp7861
a(I105
I84
tp7862
a(I215
I139
tp7863
a(I115
I15
tp7864
a(I152
I3
tp7865
a(I215
I120
tp7866
a(I91
I54
tp7867
a(I148
I55
tp7868
a(I77
I119
tp7869
a(I205
I2
tp7870
a(I134
I6
tp7871
a(I205
I147
tp7872
a(I43
I56
tp7873
a(I171
I15
tp7874
a(I134
I145
tp7875
a(I87
I147
tp7876
a(I90
I117
tp7877
a(I43
I73
tp7878
a(I171
I156
tp7879
a(I100
I14
tp7880
a(I104
I73
tp7881
a(I214
I18
tp7882
a(I211
I140
tp7883
a(I100
I157
tp7884
a(I119
I147
tp7885
a(I156
I159
tp7886
a(I203
I156
tp7887
a(I132
I144
tp7888
a(I136
I83
tp7889
a(I119
I0
tp7890
a(I156
I14
tp7891
a(I85
I144
tp7892
a(I146
I116
tp7893
a(I166
I115
tp7894
a(I95
I43
tp7895
a(I85
I1
tp7896
a(I213
I60
tp7897
a(I75
I55
tp7898
a(I195
I25
tp7899
a(I122
I6
tp7900
a(I216
I127
tp7901
a(I47
I42
tp7902
a(I208
I16
tp7903
a(I202
I1
tp7904
a(I168
I113
tp7905
a(I131
I7
tp7906
a(I192
I23
tp7907
a(I155
I157
tp7908
a(I168
I158
tp7909
a(I168
I0
tp7910
a(I70
I155
tp7911
a(I150
I3
tp7912
a(I214
I26
tp7913
a(I121
I145
tp7914
a(I140
I45
tp7915
a(I93
I75
tp7916
a(I211
I32
tp7917
a(I102
I155
tp7918
a(I116
I3
tp7919
a(I45
I121
tp7920
a(I102
I106
tp7921
a(I49
I126
tp7922
a(I92
I52
tp7923
a(I149
I43
tp7924
a(I45
I138
tp7925
a(I149
I156
tp7926
a(I44
I70
tp7927
a(I48
I1
tp7928
a(I196
I153
tp7929
a(I78
I157
tp7930
a(I134
I83
tp7931
a(I101
I4
tp7932
a(I125
I158
tp7933
a(I181
I156
tp7934
a(I54
I154
tp7935
a(I114
I145
tp7936
a(I43
I151
tp7937
a(I191
I23
tp7938
a(I181
I13
tp7939
a(I110
I157
tp7940
a(I167
I110
tp7941
a(I43
I36
tp7942
a(I100
I83
tp7943
a(I49
I30
tp7944
a(I157
I52
tp7945
a(I90
I73
tp7946
a(I110
I12
tp7947
a(I147
I2
tp7948
a(I210
I117
tp7949
a(I214
I62
tp7950
a(I143
I118
tp7951
a(I42
I103
tp7952
a(I133
I76
tp7953
a(I211
I130
tp7954
a(I166
I12
tp7955
a(I136
I79
tp7956
a(I213
I111
tp7957
a(I217
I100
tp7958
a(I180
I152
tp7959
a(I166
I159
tp7960
a(I95
I15
tp7961
a(I42
I153
tp7962
a(I99
I72
tp7963
a(I193
I19
tp7964
a(I145
I144
tp7965
a(I95
I156
tp7966
a(I98
I144
tp7967
a(I151
I158
tp7968
a(I193
I140
tp7969
a(I47
I89
tp7970
a(I210
I43
tp7971
a(I198
I159
tp7972
a(I165
I46
tp7973
a(I98
I3
tp7974
a(I151
I15
tp7975
a(I64
I159
tp7976
a(I212
I15
tp7977
a(I141
I53
tp7978
a(I127
I156
tp7979
a(I189
I159
tp7980
a(I168
I109
tp7981
a(I46
I146
tp7982
a(I212
I126
tp7983
a(I210
I4
tp7984
a(I217
I107
tp7985
a(I117
I7
tp7986
a(I139
I0
tp7987
a(I199
I19
tp7988
a(I144
I5
tp7989
a(I46
I108
tp7990
a(I197
I0
tp7991
a(I187
I22
tp7992
a(I150
I158
tp7993
a(I153
I106
tp7994
a(I42
I134
tp7995
a(I49
I9
tp7996
a(I197
I145
tp7997
a(I163
I1
tp7998
a(I92
I105
tp7999
a(I79
I157
tp8000
a(I45
I93
tp8001
a(I49
I154
tp8002
a(I200
I26
tp8003
a(I182
I158
tp8004
a(I129
I2
tp8005
a(I206
I16
tp8006
a(I44
I155
tp8007
a(I48
I94
tp8008
a(I139
I105
tp8009
a(I78
I78
tp8010
a(I81
I154
tp8011
a(I44
I42
tp8012
a(I48
I45
tp8013
a(I186
I22
tp8014
a(I111
I2
tp8015
a(I81
I43
tp8016
a(I138
I50
tp8017
a(I87
I117
tp8018
a(I215
I32
tp8019
a(I209
I143
tp8020
a(I114
I4
tp8021
a(I43
I0
tp8022
a(I100
I119
tp8023
a(I191
I152
tp8024
a(I57
I156
tp8025
a(I204
I21
tp8026
a(I137
I84
tp8027
a(I160
I147
tp8028
a(I215
I129
tp8029
a(I42
I91
tp8030
a(I80
I154
tp8031
a(I136
I156
tp8032
a(I160
I2
tp8033
a(I89
I156
tp8034
a(I166
I40
tp8035
a(I189
I137
tp8036
a(I65
I155
tp8037
a(I156
I118
tp8038
a(I85
I72
tp8039
a(I213
I3
tp8040
a(I89
I13
tp8041
a(I142
I1
tp8042
a(I47
I140
tp8043
a(I216
I136
tp8044
a(I195
I134
tp8045
a(I165
I113
tp8046
a(I169
I118
tp8047
a(I47
I125
tp8048
a(I216
I55
tp8049
a(I145
I13
tp8050
a(I212
I35
tp8051
a(I175
I153
tp8052
a(I188
I20
tp8053
a(I212
I146
tp8054
a(I127
I1
tp8055
a(I74
I159
tp8056
a(I93
I145
tp8057
a(I188
I139
tp8058
a(I207
I153
tp8059
a(I46
I25
tp8060
a(I177
I158
tp8061
a(I69
I152
tp8062
a(I201
I16
tp8063
a(I164
I108
tp8064
a(I93
I2
tp8065
a(I130
I12
tp8066
a(I59
I158
tp8067
a(I79
I83
tp8068
a(I207
I14
tp8069
a(I103
I105
tp8070
a(I106
I159
tp8071
a(I120
I15
tp8072
a(I49
I53
tp8073
a(I82
I55
tp8074
a(I45
I65
tp8075
a(I139
I4
tp8076
a(I44
I127
tp8077
a(I135
I80
tp8078
a(I48
I122
tp8079
a(I176
I15
tp8080
a(I200
I133
tp8081
a(I92
I147
tp8082
a(I129
I159
tp8083
a(I152
I40
tp8084
a(I44
I14
tp8085
a(I176
I158
tp8086
a(I195
I138
tp8087
a(I158
I2
tp8088
a(I58
I158
tp8089
a(I77
I82
tp8090
a(I205
I29
tp8091
a(I211
I42
tp8092
a(I105
I153
tp8093
a(I161
I159
tp8094
a(I185
I17
tp8095
a(I208
I158
tp8096
a(I203
I27
tp8097
a(I124
I2
tp8098
a(I90
I158
tp8099
a(I53
I10
tp8100
a(I76
I157
tp8101
a(I167
I54
tp8102
a(I43
I108
tp8103
a(I100
I107
tp8104
a(I90
I1
tp8105
a(I214
I128
tp8106
a(I214
I102
tp8107
a(I56
I0
tp8108
a(I204
I136
tp8109
a(I42
I63
tp8110
a(I156
I43
tp8111
a(I142
I114
tp8112
a(I109
I5
tp8113
a(I207
I132
tp8114
a(I95
I54
tp8115
a(I132
I76
tp8116
a(I136
I7
tp8117
a(I213
I39
tp8118
a(I89
I105
tp8119
a(I199
I20
tp8120
a(I194
I155
tp8121
a(I213
I136
tp8122
a(I67
I155
tp8123
a(I202
I155
tp8124
a(I75
I155
tp8125
a(I131
I157
tp8126
a(I155
I3
tp8127
a(I84
I155
tp8128
a(I47
I17
tp8129
a(I216
I19
tp8130
a(I211
I100
tp8131
a(I60
I156
tp8132
a(I151
I55
tp8133
a(I192
I12
tp8134
a(I107
I155
tp8135
a(I208
I14
tp8136
a(I211
I137
tp8137
a(I164
I49
tp8138
a(I154
I107
tp8139
a(I46
I53
tp8140
a(I201
I12
tp8141
a(I79
I55
tp8142
a(I154
I154
tp8143
a(I201
I157
tp8144
a(I211
I46
tp8145
a(I45
I20
tp8146
a(I102
I79
tp8147
a(I49
I81
tp8148
a(I106
I2
tp8149
a(I186
I154
tp8150
a(I207
I16
tp8151
a(I120
I154
tp8152
a(I48
I151
tp8153
a(I196
I23
tp8154
a(I186
I13
tp8155
a(I44
I99
tp8156
a(I101
I158
tp8157
a(I48
I102
tp8158
a(I215
I138
tp8159
a(I115
I14
tp8160
a(I152
I4
tp8161
a(I215
I123
tp8162
a(I77
I118
tp8163
a(I205
I1
tp8164
a(I134
I7
tp8165
a(I205
I146
tp8166
a(I43
I59
tp8167
a(I171
I14
tp8168
a(I87
I146
tp8169
a(I43
I72
tp8170
a(I171
I159
tp8171
a(I100
I15
tp8172
a(I137
I3
tp8173
a(I104
I74
tp8174
a(I214
I19
tp8175
a(I53
I159
tp8176
a(I133
I87
tp8177
a(I100
I158
tp8178
a(I119
I146
tp8179
a(I156
I152
tp8180
a(I210
I103
tp8181
a(I203
I159
tp8182
a(I132
I145
tp8183
a(I136
I84
tp8184
a(I119
I3
tp8185
a(I156
I15
tp8186
a(I85
I159
tp8187
a(I217
I15
tp8188
a(I146
I117
tp8189
a(I166
I112
tp8190
a(I95
I42
tp8191
a(I85
I0
tp8192
a(I213
I59
tp8193
a(I217
I47
tp8194
a(I75
I54
tp8195
a(I122
I7
tp8196
a(I51
I1
tp8197
a(I47
I53
tp8198
a(I210
I29
tp8199
a(I186
I140
tp8200
a(I202
I14
tp8201
a(I168
I114
tp8202
a(I131
I6
tp8203
a(I155
I156
tp8204
a(I189
I145
tp8205
a(I168
I1
tp8206
a(I70
I152
tp8207
a(I217
I117
tp8208
a(I168
I144
tp8209
a(I150
I0
tp8210
a(I121
I144
tp8211
a(I215
I140
tp8212
a(I140
I46
tp8213
a(I55
I157
tp8214
a(I93
I74
tp8215
a(I187
I13
tp8216
a(I102
I152
tp8217
a(I116
I12
tp8218
a(I45
I120
tp8219
a(I102
I107
tp8220
a(I49
I125
tp8221
a(I92
I53
tp8222
a(I149
I42
tp8223
a(I45
I137
tp8224
a(I149
I155
tp8225
a(I44
I71
tp8226
a(I172
I12
tp8227
a(I48
I2
tp8228
a(I105
I55
tp8229
a(I196
I154
tp8230
a(I211
I102
tp8231
a(I189
I2
tp8232
a(I134
I80
tp8233
a(I101
I3
tp8234
a(I125
I157
tp8235
a(I181
I155
tp8236
a(I54
I155
tp8237
a(I43
I150
tp8238
a(I191
I22
tp8239
a(I181
I12
tp8240
a(I167
I105
tp8241
a(I43
I39
tp8242
a(I194
I137
tp8243
a(I90
I86
tp8244
a(I110
I13
tp8245
a(I147
I5
tp8246
a(I122
I0
tp8247
a(I214
I63
tp8248
a(I143
I113
tp8249
a(I76
I52
tp8250
a(I42
I100
tp8251
a(I133
I75
tp8252
a(I166
I13
tp8253
a(I123
I1
tp8254
a(I213
I110
tp8255
a(I142
I42
tp8256
a(I180
I153
tp8257
a(I166
I156
tp8258
a(I95
I14
tp8259
a(I132
I4
tp8260
a(I99
I75
tp8261
a(I193
I18
tp8262
a(I95
I159
tp8263
a(I98
I145
tp8264
a(I151
I153
tp8265
a(I47
I88
tp8266
a(I198
I156
tp8267
a(I165
I45
tp8268
a(I98
I0
tp8269
a(I151
I14
tp8270
a(I141
I52
tp8271
a(I127
I159
tp8272
a(I168
I110
tp8273
a(I46
I147
tp8274
a(I212
I127
tp8275
a(I203
I18
tp8276
a(I117
I6
tp8277
a(I46
I2
tp8278
a(I144
I6
tp8279
a(I46
I109
tp8280
a(I197
I15
tp8281
a(I150
I159
tp8282
a(I153
I105
tp8283
a(I49
I8
tp8284
a(I197
I144
tp8285
a(I126
I14
tp8286
a(I163
I0
tp8287
a(I92
I106
tp8288
a(I198
I25
tp8289
a(I79
I156
tp8290
a(I45
I92
tp8291
a(I49
I153
tp8292
a(I200
I27
tp8293
a(I163
I145
tp8294
a(I182
I159
tp8295
a(I129
I1
tp8296
a(I206
I17
tp8297
a(I44
I148
tp8298
a(I48
I95
tp8299
a(I139
I104
tp8300
a(I182
I14
tp8301
a(I78
I79
tp8302
a(I81
I153
tp8303
a(I44
I43
tp8304
a(I48
I46
tp8305
a(I195
I145
tp8306
a(I111
I13
tp8307
a(I81
I42
tp8308
a(I138
I51
tp8309
a(I87
I116
tp8310
a(I215
I35
tp8311
a(I209
I142
tp8312
a.